

Microchip Technology PIC18 LITE Macro Assembler V1.31 build 56723 
                                                                                               Sat Sep 13 22:03:17 2014

Microchip Technology Omniscient Code Generator (Lite mode) build 56723
     1                           	processor	18F4550
     2                           	fnconf	rparam,??,?,0
     3                           	opt	pw 120
     4                           	opt	lm
     5                           	psect	idataCOMRAM,global,class=CODE,delta=1
     6                           	psect	mediumconst,global,reloc=2,class=MEDIUMCONST,delta=1
     7                           	psect	cinit,global,reloc=2,class=CODE,delta=1
     8                           	psect	bssCOMRAM,global,class=COMRAM,space=1,delta=1
     9                           	psect	dataCOMRAM,global,class=COMRAM,space=1,delta=1
    10                           	psect	bssBANK0,global,class=BANK0,space=1,delta=1
    11                           	psect	cstackCOMRAM,global,class=COMRAM,space=1,delta=1
    12                           	psect	text0,global,reloc=2,class=CODE,delta=1
    13                           	psect	text1,global,reloc=2,class=CODE,delta=1
    14                           	psect	text2,global,reloc=2,class=CODE,delta=1
    15                           	psect	text3,global,reloc=2,class=CODE,delta=1
    16                           	psect	text4,global,reloc=2,class=CODE,delta=1
    17                           	psect	text5,global,reloc=2,class=CODE,delta=1
    18                           	psect	text6,global,reloc=2,class=CODE,delta=1
    19                           	psect	text7,global,reloc=2,class=CODE,delta=1
    20                           	psect	text8,global,reloc=2,class=CODE,delta=1
    21                           	psect	text9,global,reloc=2,class=CODE,delta=1
    22                           	psect	text10,global,reloc=2,class=CODE,delta=1
    23                           	psect	text11,global,reloc=2,class=CODE,delta=1
    24                           	psect	text12,global,reloc=2,class=CODE,delta=1
    25                           	psect	text13,global,reloc=2,class=CODE,delta=1
    26                           	psect	text14,global,reloc=2,class=CODE,delta=1
    27                           	psect	text15,global,reloc=2,class=CODE,delta=1
    28                           	psect	text16,global,reloc=2,class=CODE,delta=1
    29                           	psect	text17,global,reloc=2,class=CODE,delta=1
    30                           	psect	text18,global,reloc=2,class=CODE,delta=1
    31                           	psect	text19,global,reloc=2,class=CODE,delta=1
    32                           	psect	intcode,global,reloc=2,class=CODE,delta=1
    33                           	psect	intcode_body,global,reloc=2,class=CODE,delta=1
    34                           	psect	text21,global,reloc=2,class=CODE,delta=1
    35                           	psect	text22,global,reloc=2,class=CODE,delta=1
    36                           	psect	text23,global,reloc=2,class=CODE,delta=1
    37                           	psect	text24,global,reloc=2,class=CODE,delta=1
    38                           	psect	intsave_regs,global,class=BIGRAM,space=1,delta=1
    39                           	psect	rparam,global,class=COMRAM,space=1,delta=1
    40  0000                     
    41                           	psect	idataCOMRAM
    42  005842                     __pidataCOMRAM:
    43                           	opt stack 0
    44                           
    45                           ;initializer for _R
    46  005842  0FDF               	dw	4063
    47                           
    48                           ;initializer for _REG
    49  005844  0F                 	db	15
    50                           
    51                           ;initializer for _REGad
    52  005845  DF                 	db	223
    53                           
    54                           	psect	mediumconst
    55  007E5A                     __pmediumconst:
    56                           	opt stack 0
    57  007E5A  00                 	db	0
    58  007E5B                     _ip:
    59                           	opt stack 0
    60  007E5B  31                 	db	49
    61  007E5C  39                 	db	57
    62  007E5D  32                 	db	50
    63  007E5E  2E                 	db	46
    64  007E5F  31                 	db	49
    65  007E60  36                 	db	54
    66  007E61  38                 	db	56
    67  007E62  2E                 	db	46
    68  007E63  31                 	db	49
    69  007E64  2E                 	db	46
    70  007E65  31                 	db	49
    71  007E66  39                 	db	57
    72  007E67  35                 	db	53
    73  007E68  00                 	db	0
    74  007E69                     __end_of_ip:
    75                           	opt stack 0
    76  007E69                     _rede:
    77                           	opt stack 0
    78  007E69  53                 	db	83
    79  007E6A  61                 	db	97
    80  007E6B  6E                 	db	110
    81  007E6C  55                 	db	85
    82  007E6D  53                 	db	83
    83  007E6E  42                 	db	66
    84  007E6F  00                 	db	0
    85  007E70                     __end_of_rede:
    86                           	opt stack 0
    87  007E70                     _senha:
    88                           	opt stack 0
    89  007E70  4C                 	db	76
    90  007E71  61                 	db	97
    91  007E72  65                 	db	101
    92  007E73  73                 	db	115
    93  007E74  65                 	db	101
    94  007E75  00                 	db	0
    95  007E76                     __end_of_senha:
    96                           	opt stack 0
    97  007E76                     _pg2:
    98                           	opt stack 0
    99  007E76  4C                 	db	76
   100  007E77  E6                 	db	230
   101  007E78  EA                 	db	234
   102  007E79  C4                 	db	196
   103  007E7A  DA                 	db	218
   104  007E7B  D2                 	db	210
   105  007E7C  E8                 	db	232
   106  007E7D  7A                 	db	122
   107  007E7E  A6                 	db	166
   108  007E7F  EA                 	db	234
   109  007E80  C4                 	db	196
   110  007E81  DA                 	db	218
   111  007E82  D2                 	db	210
   112  007E83  E8                 	db	232
   113  007E84  44                 	db	68
   114  007E85  7C                 	db	124
   115  007E86  78                 	db	120
   116  007E87  5E                 	db	94
   117  007E88  D2                 	db	210
   118  007E89  CC                 	db	204
   119  007E8A  E4                 	db	228
   120  007E8B  C2                 	db	194
   121  007E8C  DA                 	db	218
   122  007E8D  CA                 	db	202
   123  007E8E  7C                 	db	124
   124  007E8F  78                 	db	120
   125  007E90  90                 	db	144
   126  007E91  62                 	db	98
   127  007E92  7C                 	db	124
   128  007E93  94                 	db	148
   129  007E94  DE                 	db	222
   130  007E95  D2                 	db	210
   131  007E96  DC                 	db	220
   132  007E97  40                 	db	64
   133  007E98  E8                 	db	232
   134  007E99  D2                 	db	210
   135  007E9A  DC                 	db	220
   136  007E9B  F2                 	db	242
   137  007E9C  EA                 	db	234
   138  007E9D  E4                 	db	228
   139  007E9E  D8                 	db	216
   140  007E9F  5C                 	db	92
   141  007EA0  C6                 	db	198
   142  007EA1  DE                 	db	222
   143  007EA2  DA                 	db	218
   144  007EA3  5E                 	db	94
   145  007EA4  A6                 	db	166
   146  007EA5  C2                 	db	194
   147  007EA6  DC                 	db	220
   148  007EA7  AA                 	db	170
   149  007EA8  A6                 	db	166
   150  007EA9  84                 	db	132
   151  007EAA  78                 	db	120
   152  007EAB  5E                 	db	94
   153  007EAC  90                 	db	144
   154  007EAD  62                 	db	98
   155  007EAE  7C                 	db	124
   156  007EAF  78                 	db	120
   157  007EB0  A0                 	db	160
   158  007EB1  7C                 	db	124
   159  007EB2  78                 	db	120
   160  007EB3  5E                 	db	94
   161  007EB4  90                 	db	144
   162  007EB5  62                 	db	98
   163  007EB6  7C                 	db	124
   164  007EB7  82                 	db	130
   165  007EB8  C6                 	db	198
   166  007EB9  C6                 	db	198
   167  007EBA  CA                 	db	202
   168  007EBB  E6                 	db	230
   169  007EBC  E6                 	db	230
   170  007EBD  40                 	db	64
   171  007EBE  78                 	db	120
   172  007EBF  C2                 	db	194
   173  007EC0  40                 	db	64
   174  007EC1  D0                 	db	208
   175  007EC2  E4                 	db	228
   176  007EC3  CA                 	db	202
   177  007EC4  CC                 	db	204
   178  007EC5  7A                 	db	122
   179  007EC6  44                 	db	68
   180  007EC7  D0                 	db	208
   181  007EC8  E8                 	db	232
   182  007EC9  E8                 	db	232
   183  007ECA  E0                 	db	224
   184  007ECB  E6                 	db	230
   185  007ECC  74                 	db	116
   186  007ECD  5E                 	db	94
   187  007ECE  5E                 	db	94
   188  007ECF  C8                 	db	200
   189  007ED0  DE                 	db	222
   190  007ED1  C6                 	db	198
   191  007ED2  E6                 	db	230
   192  007ED3  5C                 	db	92
   193  007ED4  CE                 	db	206
   194  007ED5  DE                 	db	222
   195  007ED6  DE                 	db	222
   196  007ED7  CE                 	db	206
   197  007ED8  D8                 	db	216
   198  007ED9  CA                 	db	202
   199  007EDA  5C                 	db	92
   200  007EDB  C6                 	db	198
   201  007EDC  DE                 	db	222
   202  007EDD  DA                 	db	218
   203  007EDE  5E                 	db	94
   204  007EDF  E6                 	db	230
   205  007EE0  E0                 	db	224
   206  007EE1  E4                 	db	228
   207  007EE2  CA                 	db	202
   208  007EE3  C2                 	db	194
   209  007EE4  C8                 	db	200
   210  007EE5  E6                 	db	230
   211  007EE6  D0                 	db	208
   212  007EE7  CA                 	db	202
   213  007EE8  CA                 	db	202
   214  007EE9  E8                 	db	232
   215  007EEA  5E                 	db	94
   216  007EEB  C6                 	db	198
   217  007EEC  C6                 	db	198
   218  007EED  C6                 	db	198
   219  007EEE  7E                 	db	126
   220  007EEF  D6                 	db	214
   221  007EF0  CA                 	db	202
   222  007EF1  F2                 	db	242
   223  007EF2  7A                 	db	122
   224  007EF3  60                 	db	96
   225  007EF4  82                 	db	130
   226  007EF5  E0                 	db	224
   227  007EF6  66                 	db	102
   228  007EF7  66                 	db	102
   229  007EF8  64                 	db	100
   230  007EF9  9E                 	db	158
   231  007EFA  82                 	db	130
   232  007EFB  D0                 	db	208
   233  007EFC  DC                 	db	220
   234  007EFD  9A                 	db	154
   235  007EFE  CA                 	db	202
   236  007EFF  64                 	db	100
   237  007F00  C8                 	db	200
   238  007F01  88                 	db	136
   239  007F02  B4                 	db	180
   240  007F03  EE                 	db	238
   241  007F04  AC                 	db	172
   242  007F05  D8                 	db	216
   243  007F06  A4                 	db	164
   244  007F07  68                 	db	104
   245  007F08  A4                 	db	164
   246  007F09  8E                 	db	142
   247  007F0A  6A                 	db	106
   248  007F0B  E6                 	db	230
   249  007F0C  A8                 	db	168
   250  007F0D  AE                 	db	174
   251  007F0E  6A                 	db	106
   252  007F0F  9C                 	db	156
   253  007F10  CA                 	db	202
   254  007F11  D8                 	db	216
   255  007F12  DE                 	db	222
   256  007F13  64                 	db	100
   257  007F14  A4                 	db	164
   258  007F15  D8                 	db	216
   259  007F16  9C                 	db	156
   260  007F17  A0                 	db	160
   261  007F18  AC                 	db	172
   262  007F19  8A                 	db	138
   263  007F1A  A2                 	db	162
   264  007F1B  64                 	db	100
   265  007F1C  B2                 	db	178
   266  007F1D  DA                 	db	218
   267  007F1E  C6                 	db	198
   268  007F1F  44                 	db	68
   269  007F20  7C                 	db	124
   270  007F21  98                 	db	152
   271  007F22  DE                 	db	222
   272  007F23  CE                 	db	206
   273  007F24  E6                 	db	230
   274  007F25  78                 	db	120
   275  007F26  5E                 	db	94
   276  007F27  C2                 	db	194
   277  007F28  7C                 	db	124
   278  007F29  78                 	db	120
   279  007F2A  5E                 	db	94
   280  007F2B  A0                 	db	160
   281  007F2C  7C                 	db	124
   282  007F2D  78                 	db	120
   283  007F2E  5E                 	db	94
   284  007F2F  C6                 	db	198
   285  007F30  CA                 	db	202
   286  007F31  DC                 	db	220
   287  007F32  E8                 	db	232
   288  007F33  CA                 	db	202
   289  007F34  E4                 	db	228
   290  007F35  7C                 	db	124
   291  007F36  1A                 	db	26
   292  007F37  14                 	db	20
   293  007F38  00                 	db	0
   294  007F39                     __end_of_pg2:
   295                           	opt stack 0
   296  007F39                     _pg:
   297                           	opt stack 0
   298  007F39  90                 	db	144
   299  007F3A  A8                 	db	168
   300  007F3B  A8                 	db	168
   301  007F3C  A0                 	db	160
   302  007F3D  5E                 	db	94
   303  007F3E  62                 	db	98
   304  007F3F  5C                 	db	92
   305  007F40  62                 	db	98
   306  007F41  40                 	db	64
   307  007F42  64                 	db	100
   308  007F43  60                 	db	96
   309  007F44  60                 	db	96
   310  007F45  40                 	db	64
   311  007F46  9E                 	db	158
   312  007F47  96                 	db	150
   313  007F48  1A                 	db	26
   314  007F49  14                 	db	20
   315  007F4A  86                 	db	134
   316  007F4B  DE                 	db	222
   317  007F4C  DC                 	db	220
   318  007F4D  E8                 	db	232
   319  007F4E  CA                 	db	202
   320  007F4F  DC                 	db	220
   321  007F50  E8                 	db	232
   322  007F51  5A                 	db	90
   323  007F52  A8                 	db	168
   324  007F53  F2                 	db	242
   325  007F54  E0                 	db	224
   326  007F55  CA                 	db	202
   327  007F56  74                 	db	116
   328  007F57  40                 	db	64
   329  007F58  E8                 	db	232
   330  007F59  CA                 	db	202
   331  007F5A  F0                 	db	240
   332  007F5B  E8                 	db	232
   333  007F5C  5E                 	db	94
   334  007F5D  D0                 	db	208
   335  007F5E  E8                 	db	232
   336  007F5F  DA                 	db	218
   337  007F60  D8                 	db	216
   338  007F61  1A                 	db	26
   339  007F62  14                 	db	20
   340  007F63  1A                 	db	26
   341  007F64  14                 	db	20
   342  007F65  78                 	db	120
   343  007F66  C6                 	db	198
   344  007F67  CA                 	db	202
   345  007F68  DC                 	db	220
   346  007F69  E8                 	db	232
   347  007F6A  CA                 	db	202
   348  007F6B  E4                 	db	228
   349  007F6C  7C                 	db	124
   350  007F6D  78                 	db	120
   351  007F6E  D2                 	db	210
   352  007F6F  CC                 	db	204
   353  007F70  E4                 	db	228
   354  007F71  C2                 	db	194
   355  007F72  DA                 	db	218
   356  007F73  CA                 	db	202
   357  007F74  40                 	db	64
   358  007F75  E6                 	db	230
   359  007F76  E4                 	db	228
   360  007F77  C6                 	db	198
   361  007F78  7A                 	db	122
   362  007F79  44                 	db	68
   363  007F7A  D0                 	db	208
   364  007F7B  E8                 	db	232
   365  007F7C  E8                 	db	232
   366  007F7D  E0                 	db	224
   367  007F7E  E6                 	db	230
   368  007F7F  74                 	db	116
   369  007F80  5E                 	db	94
   370  007F81  5E                 	db	94
   371  007F82  C8                 	db	200
   372  007F83  DE                 	db	222
   373  007F84  C6                 	db	198
   374  007F85  E6                 	db	230
   375  007F86  5C                 	db	92
   376  007F87  CE                 	db	206
   377  007F88  DE                 	db	222
   378  007F89  DE                 	db	222
   379  007F8A  CE                 	db	206
   380  007F8B  D8                 	db	216
   381  007F8C  CA                 	db	202
   382  007F8D  5C                 	db	92
   383  007F8E  C6                 	db	198
   384  007F8F  DE                 	db	222
   385  007F90  DA                 	db	218
   386  007F91  5E                 	db	94
   387  007F92  E6                 	db	230
   388  007F93  E0                 	db	224
   389  007F94  E4                 	db	228
   390  007F95  CA                 	db	202
   391  007F96  C2                 	db	194
   392  007F97  C8                 	db	200
   393  007F98  E6                 	db	230
   394  007F99  D0                 	db	208
   395  007F9A  CA                 	db	202
   396  007F9B  CA                 	db	202
   397  007F9C  E8                 	db	232
   398  007F9D  5E                 	db	94
   399  007F9E  CC                 	db	204
   400  007F9F  DE                 	db	222
   401  007FA0  E4                 	db	228
   402  007FA1  DA                 	db	218
   403  007FA2  A4                 	db	164
   404  007FA3  CA                 	db	202
   405  007FA4  E6                 	db	230
   406  007FA5  E0                 	db	224
   407  007FA6  DE                 	db	222
   408  007FA7  DC                 	db	220
   409  007FA8  E6                 	db	230
   410  007FA9  CA                 	db	202
   411  007FAA  7E                 	db	126
   412  007FAB  CC                 	db	204
   413  007FAC  DE                 	db	222
   414  007FAD  E4                 	db	228
   415  007FAE  DA                 	db	218
   416  007FAF  D6                 	db	214
   417  007FB0  CA                 	db	202
   418  007FB1  F2                 	db	242
   419  007FB2  7A                 	db	122
   420  007FB3  C8                 	db	200
   421  007FB4  88                 	db	136
   422  007FB5  B4                 	db	180
   423  007FB6  EE                 	db	238
   424  007FB7  AC                 	db	172
   425  007FB8  D8                 	db	216
   426  007FB9  A4                 	db	164
   427  007FBA  68                 	db	104
   428  007FBB  A4                 	db	164
   429  007FBC  8E                 	db	142
   430  007FBD  6A                 	db	106
   431  007FBE  E6                 	db	230
   432  007FBF  A8                 	db	168
   433  007FC0  AE                 	db	174
   434  007FC1  6A                 	db	106
   435  007FC2  9C                 	db	156
   436  007FC3  CA                 	db	202
   437  007FC4  D8                 	db	216
   438  007FC5  DE                 	db	222
   439  007FC6  64                 	db	100
   440  007FC7  A4                 	db	164
   441  007FC8  D8                 	db	216
   442  007FC9  9C                 	db	156
   443  007FCA  A0                 	db	160
   444  007FCB  AC                 	db	172
   445  007FCC  8A                 	db	138
   446  007FCD  A2                 	db	162
   447  007FCE  64                 	db	100
   448  007FCF  B2                 	db	178
   449  007FD0  DA                 	db	218
   450  007FD1  C6                 	db	198
   451  007FD2  6C                 	db	108
   452  007FD3  9A                 	db	154
   453  007FD4  A2                 	db	162
   454  007FD5  4C                 	db	76
   455  007FD6  D2                 	db	210
   456  007FD7  CC                 	db	204
   457  007FD8  E2                 	db	226
   458  007FD9  4A                 	db	74
   459  007FDA  64                 	db	100
   460  007FDB  60                 	db	96
   461  007FDC  4C                 	db	76
   462  007FDD  CA                 	db	202
   463  007FDE  DC                 	db	220
   464  007FDF  E8                 	db	232
   465  007FE0  E4                 	db	228
   466  007FE1  F2                 	db	242
   467  007FE2  5C                 	db	92
   468  007FE3  60                 	db	96
   469  007FE4  5C                 	db	92
   470  007FE5  E6                 	db	230
   471  007FE6  D2                 	db	210
   472  007FE7  DC                 	db	220
   473  007FE8  CE                 	db	206
   474  007FE9  D8                 	db	216
   475  007FEA  CA                 	db	202
   476  007FEB  7A                 	db	122
   477  007FEC  00                 	db	0
   478  007FED                     __end_of_pg:
   479                           	opt stack 0
   480  007FED                     _pg1:
   481                           	opt stack 0
   482  007FED  4C                 	db	76
   483  007FEE  CA                 	db	202
   484  007FEF  DC                 	db	220
   485  007FF0  E8                 	db	232
   486  007FF1  E4                 	db	228
   487  007FF2  F2                 	db	242
   488  007FF3  5C                 	db	92
   489  007FF4  62                 	db	98
   490  007FF5  5C                 	db	92
   491  007FF6  E6                 	db	230
   492  007FF7  D2                 	db	210
   493  007FF8  DC                 	db	220
   494  007FF9  CE                 	db	206
   495  007FFA  D8                 	db	216
   496  007FFB  CA                 	db	202
   497  007FFC  7A                 	db	122
   498  007FFD  00                 	db	0
   499  007FFE                     __end_of_pg1:
   500                           	opt stack 0
   501  0000                     _ADRES	set	4035
   502  0000                     _ADCON0	set	4034
   503  0000                     _ADCON0bits	set	4034
   504  0000                     _ADCON1	set	4033
   505  0000                     _ADCON2	set	4032
   506  0000                     _ADCON2bits	set	4032
   507  0000                     _ADRESH	set	4036
   508  0000                     _BAUDCON	set	4024
   509  0000                     _BAUDCONbits	set	4024
   510  0000                     _CCP1CON	set	4029
   511  0000                     _CCP2CON	set	4026
   512  0000                     _CCPR1L	set	4030
   513  0000                     _CCPR2L	set	4027
   514  0000                     _EEADR	set	4009
   515  0000                     _EECON1	set	4006
   516  0000                     _EECON1bits	set	4006
   517  0000                     _EECON2	set	4007
   518  0000                     _EEDATA	set	4008
   519  0000                     _INTCON2bits	set	4081
   520  0000                     _INTCON3bits	set	4080
   521  0000                     _INTCONbits	set	4082
   522  0000                     _IPR1bits	set	3999
   523  0000                     _LATA	set	3977
   524  0000                     _LATB	set	3978
   525  0000                     _LATC	set	3979
   526  0000                     _PIE1bits	set	3997
   527  0000                     _PIE2bits	set	4000
   528  0000                     _PIR1bits	set	3998
   529  0000                     _PORTAbits	set	3968
   530  0000                     _PORTBbits	set	3969
   531  0000                     _PORTCbits	set	3970
   532  0000                     _PORTDbits	set	3971
   533  0000                     _PR2	set	4043
   534  0000                     _RCONbits	set	4048
   535  0000                     _RCREG	set	4014
   536  0000                     _RCSTA	set	4011
   537  0000                     _RCSTAbits	set	4011
   538  0000                     _SPBRG	set	4015
   539  0000                     _SPBRGH	set	4016
   540  0000                     _T0CON	set	4053
   541  0000                     _T0CONbits	set	4053
   542  0000                     _T1CONbits	set	4045
   543  0000                     _T2CON	set	4042
   544  0000                     _T2CONbits	set	4042
   545  0000                     _T3CONbits	set	4017
   546  0000                     _TMR0H	set	4055
   547  0000                     _TMR0L	set	4054
   548  0000                     _TMR1H	set	4047
   549  0000                     _TMR1L	set	4046
   550  0000                     _TMR3H	set	4019
   551  0000                     _TMR3L	set	4018
   552  0000                     _TRISA	set	3986
   553  0000                     _TRISAbits	set	3986
   554  0000                     _TRISB	set	3987
   555  0000                     _TRISBbits	set	3987
   556  0000                     _TRISC	set	3988
   557  0000                     _TRISCbits	set	3988
   558  0000                     _TRISDbits	set	3989
   559  0000                     _TXREG	set	4013
   560  0000                     _TXSTA	set	4012
   561  0000                     _TXSTAbits	set	4012
   562  0000                     _WDTCONbits	set	4049
   563  007FFE  00                 	db	0	; dummy byte at the end
   564  0000                     
   565                           ; #config settings
   566                           
   567                           	psect	cinit
   568  005912                     __pcinit:
   569                           	opt stack 0
   570  005912                     start_initialization:
   571                           	opt stack 0
   572  005912                     __initialization:
   573                           	opt stack 0
   574                           
   575                           ; Clear objects allocated to BANK0 (64 bytes)
   576  005912  EE00  F060         	lfsr	0,__pbssBANK0
   577  005916  0E40               	movlw	64
   578  005918                     clear_0:
   579  005918  6AEE               	clrf	postinc0,c
   580  00591A  06E8               	decf	wreg,f,c
   581  00591C  E1FD               	bnz	clear_0
   582                           
   583                           ; Clear objects allocated to COMRAM (19 bytes)
   584  00591E  EE00  F036         	lfsr	0,__pbssCOMRAM
   585  005922  0E13               	movlw	19
   586  005924                     clear_1:
   587  005924  6AEE               	clrf	postinc0,c
   588  005926  06E8               	decf	wreg,f,c
   589  005928  E1FD               	bnz	clear_1
   590                           
   591                           ; Initialize objects allocated to COMRAM (4 bytes)
   592                           ; load TBLPTR registers with __pidataCOMRAM
   593  00592A  0E42               	movlw	low __pidataCOMRAM
   594  00592C  6EF6               	movwf	tblptrl,c
   595  00592E  0E58               	movlw	high __pidataCOMRAM
   596  005930  6EF7               	movwf	tblptrh,c
   597  005932  0E00               	movlw	low (__pidataCOMRAM shr (0+16))
   598  005934  6EF8               	movwf	tblptru,c
   599  005936  EE00  F049         	lfsr	0,__pdataCOMRAM
   600  00593A  EE10 F004          	lfsr	1,4
   601  00593E                     copy_data0:
   602  00593E  0009               	tblrd		*+
   603  005940  CFF5 FFEE          	movff	tablat,postinc0
   604  005944  50E5               	movf	postdec1,w,c
   605  005946  50E1               	movf	fsr1l,w,c
   606  005948  E1FA               	bnz	copy_data0
   607  00594A                     end_of_initialization:
   608                           	opt stack 0
   609  00594A                     __end_of__initialization:
   610                           	opt stack 0
   611  00594A  0E00               	movlw	low (__Lmediumconst shr (0+16))
   612  00594C  6EF8               	movwf	tblptru,c
   613  00594E  0100               	movlb	0
   614  005950  EFDA  F02E         	goto	_main	;jump to C main() function
   615                           tblptru	equ	0xFF8
   616                           tblptrh	equ	0xFF7
   617                           tblptrl	equ	0xFF6
   618                           tablat	equ	0xFF5
   619                           postinc0	equ	0xFEE
   620                           wreg	equ	0xFE8
   621                           postdec1	equ	0xFE5
   622                           fsr1l	equ	0xFE1
   623                           
   624                           	psect	bssCOMRAM
   625  000036                     __pbssCOMRAM:
   626                           	opt stack 0
   627  000036                     _ADvalue:
   628                           	opt stack 0
   629  000036                     	ds	2
   630  000038                     _AT1:
   631                           	opt stack 0
   632  000038                     	ds	2
   633  00003A                     _AT2:
   634                           	opt stack 0
   635  00003A                     	ds	2
   636  00003C                     _flagsw:
   637                           	opt stack 0
   638  00003C                     	ds	2
   639  00003E                     _i:
   640                           	opt stack 0
   641  00003E                     	ds	2
   642  000040                     _pisca:
   643                           	opt stack 0
   644  000040                     	ds	2
   645  000042                     _start:
   646                           	opt stack 0
   647  000042                     	ds	2
   648  000044                     _USART_Status:
   649                           	opt stack 0
   650  000044                     	ds	1
   651  000045                     _k:
   652                           	opt stack 0
   653  000045                     	ds	1
   654  000046                     _m:
   655                           	opt stack 0
   656  000046                     	ds	1
   657  000047                     _n:
   658                           	opt stack 0
   659  000047                     	ds	1
   660  000048                     _smid:
   661                           	opt stack 0
   662  000048                     	ds	1
   663                           tblptru	equ	0xFF8
   664                           tblptrh	equ	0xFF7
   665                           tblptrl	equ	0xFF6
   666                           tablat	equ	0xFF5
   667                           postinc0	equ	0xFEE
   668                           wreg	equ	0xFE8
   669                           postdec1	equ	0xFE5
   670                           fsr1l	equ	0xFE1
   671                           
   672                           	psect	dataCOMRAM
   673  000049                     __pdataCOMRAM:
   674                           	opt stack 0
   675  000049                     _R:
   676                           	opt stack 0
   677  000049                     	ds	2
   678  00004B                     _REG:
   679                           	opt stack 0
   680  00004B                     	ds	1
   681  00004C                     _REGad:
   682                           	opt stack 0
   683  00004C                     	ds	1
   684                           tblptru	equ	0xFF8
   685                           tblptrh	equ	0xFF7
   686                           tblptrl	equ	0xFF6
   687                           tablat	equ	0xFF5
   688                           postinc0	equ	0xFEE
   689                           wreg	equ	0xFE8
   690                           postdec1	equ	0xFE5
   691                           fsr1l	equ	0xFE1
   692                           
   693                           	psect	bssBANK0
   694  000060                     __pbssBANK0:
   695                           	opt stack 0
   696  000060                     _comando:
   697                           	opt stack 0
   698  000060                     	ds	64
   699                           tblptru	equ	0xFF8
   700                           tblptrh	equ	0xFF7
   701                           tblptrl	equ	0xFF6
   702                           tablat	equ	0xFF5
   703                           postinc0	equ	0xFEE
   704                           wreg	equ	0xFE8
   705                           postdec1	equ	0xFE5
   706                           fsr1l	equ	0xFE1
   707                           
   708                           	psect	cstackCOMRAM
   709  000001                     __pcstackCOMRAM:
   710                           	opt stack 0
   711  000001                     ReadUSART@data:
   712                           	opt stack 0
   713  000001                     nivel_alto@pino:
   714                           	opt stack 0
   715  000001                     nivel_baixo@pino:
   716                           	opt stack 0
   717  000001                     i2inverte_saida@pino:
   718                           	opt stack 0
   719                           
   720                           ; 2 bytes @ 0x0
   721  000001                     	ds	2
   722  000003                     ??_nivel_alto:
   723  000003                     ??_nivel_baixo:
   724  000003                     ??i2_inverte_saida:
   725                           
   726                           ; 0 bytes @ 0x2
   727  000003                     	ds	2
   728  000005                     ??_interrupcao:
   729                           
   730                           ; 0 bytes @ 0x4
   731  000005                     	ds	15
   732  000014                     ??_sputc:
   733  000014                     ?___awmod:
   734                           	opt stack 0
   735  000014                     ?___wmul:
   736                           	opt stack 0
   737  000014                     ?___lldiv:
   738                           	opt stack 0
   739  000014                     habilita_canal_AD@canal:
   740                           	opt stack 0
   741  000014                     le_eeprom@endereco:
   742                           	opt stack 0
   743  000014                     swputc@c:
   744                           	opt stack 0
   745  000014                     Delay1KTCYx@unit:
   746                           	opt stack 0
   747  000014                     habilita_interrupcao@tipo:
   748                           	opt stack 0
   749  000014                     inverte_saida@pino:
   750                           	opt stack 0
   751  000014                     ___awmod@dividend:
   752                           	opt stack 0
   753  000014                     ___wmul@multiplier:
   754                           	opt stack 0
   755  000014                     ___lldiv@dividend:
   756                           	opt stack 0
   757                           
   758                           ; 4 bytes @ 0x13
   759  000014                     	ds	2
   760  000016                     ??_habilita_interrupcao:
   761  000016                     ??_inverte_saida:
   762  000016                     sputc@c:
   763                           	opt stack 0
   764  000016                     ___awmod@divisor:
   765                           	opt stack 0
   766  000016                     ___wmul@multiplicand:
   767                           	opt stack 0
   768                           
   769                           ; 2 bytes @ 0x15
   770  000016                     	ds	1
   771  000017                     sendr@st:
   772                           	opt stack 0
   773                           
   774                           ; 2 bytes @ 0x16
   775  000017                     	ds	1
   776  000018                     ??___awmod:
   777  000018                     ___wmul@product:
   778                           	opt stack 0
   779  000018                     ___lldiv@divisor:
   780                           	opt stack 0
   781                           
   782                           ; 4 bytes @ 0x17
   783  000018                     	ds	1
   784  000019                     ??_sendr:
   785  000019                     ___awmod@counter:
   786                           	opt stack 0
   787                           
   788                           ; 1 bytes @ 0x18
   789  000019                     	ds	1
   790  00001A                     ___awmod@sign:
   791                           	opt stack 0
   792  00001A                     tempo_ms@i:
   793                           	opt stack 0
   794                           
   795                           ; 2 bytes @ 0x19
   796  00001A                     	ds	1
   797  00001B                     ?___lwdiv:
   798                           	opt stack 0
   799  00001B                     ___lwdiv@dividend:
   800                           	opt stack 0
   801                           
   802                           ; 2 bytes @ 0x1A
   803  00001B                     	ds	1
   804  00001C                     ??___lldiv:
   805  00001C                     tempo_ms@k:
   806                           	opt stack 0
   807                           
   808                           ; 2 bytes @ 0x1B
   809  00001C                     	ds	1
   810  00001D                     ___lwdiv@divisor:
   811                           	opt stack 0
   812  00001D                     ___lldiv@quotient:
   813                           	opt stack 0
   814                           
   815                           ; 4 bytes @ 0x1C
   816  00001D                     	ds	1
   817  00001E                     ??_iniws:
   818  00001E                     ?_le_AD10bits:
   819                           	opt stack 0
   820                           
   821                           ; 2 bytes @ 0x1D
   822  00001E                     	ds	1
   823  00001F                     ??___lwdiv:
   824  00001F                     iniws@i:
   825                           	opt stack 0
   826                           
   827                           ; 1 bytes @ 0x1E
   828  00001F                     	ds	1
   829  000020                     le_AD10bits@conv:
   830                           	opt stack 0
   831  000020                     ___lwdiv@quotient:
   832                           	opt stack 0
   833                           
   834                           ; 2 bytes @ 0x1F
   835  000020                     	ds	1
   836  000021                     ___lldiv@counter:
   837                           	opt stack 0
   838                           
   839                           ; 1 bytes @ 0x20
   840  000021                     	ds	1
   841  000022                     ___lwdiv@counter:
   842                           	opt stack 0
   843  000022                     taxa_serial@taxa:
   844                           	opt stack 0
   845                           
   846                           ; 4 bytes @ 0x21
   847  000022                     	ds	1
   848  000023                     ?___lwmod:
   849                           	opt stack 0
   850  000023                     ___lwmod@dividend:
   851                           	opt stack 0
   852                           
   853                           ; 2 bytes @ 0x22
   854  000023                     	ds	2
   855  000025                     ___lwmod@divisor:
   856                           	opt stack 0
   857                           
   858                           ; 2 bytes @ 0x24
   859  000025                     	ds	1
   860  000026                     ??_taxa_serial:
   861                           
   862                           ; 0 bytes @ 0x25
   863  000026                     	ds	1
   864  000027                     ??___lwmod:
   865                           
   866                           ; 0 bytes @ 0x26
   867  000027                     	ds	1
   868  000028                     ___lwmod@counter:
   869                           	opt stack 0
   870                           
   871                           ; 1 bytes @ 0x27
   872  000028                     	ds	1
   873  000029                     sendnum@sannum:
   874                           	opt stack 0
   875                           
   876                           ; 2 bytes @ 0x28
   877  000029                     	ds	2
   878  00002B                     
   879                           ; 0 bytes @ 0x2A
   880  00002B                     	ds	3
   881  00002E                     taxa_serial@baud_sanusb:
   882                           	opt stack 0
   883                           
   884                           ; 4 bytes @ 0x2D
   885  00002E                     	ds	4
   886  000032                     ??_main:
   887                           
   888                           ; 0 bytes @ 0x31
   889  000032                     	ds	4
   890                           tblptru	equ	0xFF8
   891                           tblptrh	equ	0xFF7
   892                           tblptrl	equ	0xFF6
   893                           tablat	equ	0xFF5
   894                           postinc0	equ	0xFEE
   895                           wreg	equ	0xFE8
   896                           postdec1	equ	0xFE5
   897                           fsr1l	equ	0xFE1
   898                           
   899 ;;
   900 ;;Main: autosize = 0, tempsize = 4, incstack = 0, save=0
   901 ;;
   902 ;; *************** function _main *****************
   903 ;; Defined at:
   904 ;;		line 117 in file "WiflySanUSB.c"
   905 ;; Parameters:    Size  Location     Type
   906 ;;		None
   907 ;; Auto vars:     Size  Location     Type
   908 ;;		None
   909 ;; Return value:  Size  Location     Type
   910 ;;		None               void
   911 ;; Registers used:
   912 ;;		wreg, status,2, status,0, tblptrl, tblptrh, tblptru, prodl, prodh, cstack
   913 ;; Tracked objects:
   914 ;;		On entry : 0/0
   915 ;;		On exit  : 0/0
   916 ;;		Unchanged: 0/0
   917 ;; Data sizes:     COMRAM   BANK0   BANK1   BANK2   BANK3   BANK4   BANK5   BANK6   BANK7
   918 ;;      Params:         0       0       0       0       0       0       0       0       0
   919 ;;      Locals:         0       0       0       0       0       0       0       0       0
   920 ;;      Temps:          4       0       0       0       0       0       0       0       0
   921 ;;      Totals:         4       0       0       0       0       0       0       0       0
   922 ;;Total ram usage:        4 bytes
   923 ;; Hardware stack levels required when called:    5
   924 ;; This function calls:
   925 ;;		_clock_int_48MHz
   926 ;;		_habilita_canal_AD
   927 ;;		_habilita_interrupcao
   928 ;;		_iniws
   929 ;;		_le_AD10bits
   930 ;;		_sendnum
   931 ;;		_sendr
   932 ;;		_sputc
   933 ;;		_taxa_serial
   934 ;;		_tempo_ms
   935 ;; This function is called by:
   936 ;;		Startup code after reset
   937 ;; This function uses a non-reentrant model
   938 ;;
   939                           
   940                           	psect	text0
   941  005DB4                     __ptext0:
   942                           	opt stack 0
   943  005DB4                     _main:
   944                           	opt stack 26
   945                           
   946                           ;WiflySanUSB.c: 119: clock_int_48MHz();
   947                           
   948                           ;incstack = 0
   949  005DB4  ECF1  F02C         	call	_clock_int_48MHz	;wreg free
   950                           
   951                           ;WiflySanUSB.c: 120: habilita_interrupcao(0x9D20);
   952  005DB8  0E9D               	movlw	157
   953  005DBA  6E15               	movwf	habilita_interrupcao@tipo+1,c
   954  005DBC  0E20               	movlw	32
   955  005DBE  6E14               	movwf	habilita_interrupcao@tipo,c
   956  005DC0  EC88  F02E         	call	_habilita_interrupcao	;wreg free
   957                           
   958                           ;WiflySanUSB.c: 121: taxa_serial(9600);
   959  005DC4  0E80               	movlw	128
   960  005DC6  6E22               	movwf	taxa_serial@taxa,c
   961  005DC8  0E25               	movlw	37
   962  005DCA  6E23               	movwf	taxa_serial@taxa+1,c
   963  005DCC  0E00               	movlw	0
   964  005DCE  6E24               	movwf	taxa_serial@taxa+2,c
   965  005DD0  0E00               	movlw	0
   966  005DD2  6E25               	movwf	taxa_serial@taxa+3,c
   967  005DD4  EC72  F02D         	call	_taxa_serial	;wreg free
   968                           
   969                           ;WiflySanUSB.c: 122: habilita_canal_AD(0x0E);
   970  005DD8  0E0E               	movlw	14
   971  005DDA  EC2B  F02C         	call	_habilita_canal_AD
   972                           
   973                           ;WiflySanUSB.c: 123: iniws();
   974  005DDE  ECFB  F032         	call	_iniws	;wreg free
   975  005DE2                     l3399:
   976                           
   977                           ;WiflySanUSB.c: 127: {
   978                           ;WiflySanUSB.c: 129: if (flagsw==1) {flagsw=0;
   979  005DE2  043C               	decf	_flagsw,w,c
   980  005DE4  103D               	iorwf	_flagsw+1,w,c
   981  005DE6  A4D8               	btfss	status,2,c
   982  005DE8  D7FC               	goto	l3399
   983  005DEA  0E00               	movlw	0
   984  005DEC  6E3D               	movwf	_flagsw+1,c
   985  005DEE  0E00               	movlw	0
   986  005DF0  6E3C               	movwf	_flagsw,c
   987                           
   988                           ;WiflySanUSB.c: 130: ADvalue=le_AD10bits(0);
   989  005DF2  0E00               	movlw	0
   990  005DF4  ECF4  F02D         	call	_le_AD10bits
   991  005DF8  C01E  F036         	movff	?_le_AD10bits,_ADvalue
   992  005DFC  C01F  F037         	movff	?_le_AD10bits+1,_ADvalue+1
   993                           
   994                           ;WiflySanUSB.c: 131: tempo_ms(500);
   995  005E00  0E01               	movlw	1
   996  005E02  6E1B               	movwf	tempo_ms@i+1,c
   997  005E04  0EF4               	movlw	244
   998  005E06  6E1A               	movwf	tempo_ms@i,c
   999  005E08  ECCD  F02C         	call	_tempo_ms	;wreg free
  1000                           
  1001                           ;WiflySanUSB.c: 133: sendr((unsigned char*)pg);
  1002  005E0C  0E7F               	movlw	high _pg
  1003  005E0E  6E18               	movwf	sendr@st+1,c
  1004  005E10  0E39               	movlw	low _pg
  1005  005E12  6E17               	movwf	sendr@st,c
  1006  005E14  EC46  F02D         	call	_sendr	;wreg free
  1007                           
  1008                           ;WiflySanUSB.c: 134: for(i=0;rede[i]!='\0';i++)
  1009  005E18  0E00               	movlw	0
  1010  005E1A  6E3F               	movwf	_i+1,c
  1011  005E1C  0E00               	movlw	0
  1012  005E1E  6E3E               	movwf	_i,c
  1013  005E20  D020               	goto	l3417
  1014  005E22                     l3411:
  1015                           
  1016                           ;WiflySanUSB.c: 135: {smid=(rede[i]*(('@'+REG)>>5));sputc(smid);}
  1017  005E22  0E69               	movlw	low _rede
  1018  005E24  243E               	addwf	_i,w,c
  1019  005E26  6EF6               	movwf	tblptrl,c
  1020  005E28  0E7E               	movlw	high _rede
  1021  005E2A  203F               	addwfc	_i+1,w,c
  1022  005E2C  6EF7               	movwf	tblptrh,c
  1023  005E2E  0008               	tblrd		*
  1024  005E30  CFF5 F032          	movff	tablat,??_main
  1025  005E34  504B               	movf	_REG,w,c
  1026  005E36  6E33               	movwf	(??_main+1)& (0+255),c
  1027  005E38  6A34               	clrf	(??_main+2)& (0+255),c
  1028  005E3A  0E40               	movlw	64
  1029  005E3C  2633               	addwf	??_main+1,f,c
  1030  005E3E  0E00               	movlw	0
  1031  005E40  2234               	addwfc	??_main+2,f,c
  1032  005E42  0E05               	movlw	5
  1033  005E44  6E35               	movwf	(??_main+3)& (0+255),c
  1034  005E46                     u965:
  1035  005E46  90D8               	bcf	status,0,c
  1036  005E48  3234               	rrcf	??_main+2,f,c
  1037  005E4A  3233               	rrcf	??_main+1,f,c
  1038  005E4C  2E35               	decfsz	(??_main+3)& (0+255),f,c
  1039  005E4E  D7FB               	goto	u965
  1040  005E50  5033               	movf	??_main+1,w,c
  1041  005E52  0232               	mulwf	??_main,c
  1042  005E54  CFF3 F048          	movff	prodl,_smid
  1043  005E58  5048               	movf	_smid,w,c
  1044  005E5A  EC56  F02C         	call	_sputc
  1045  005E5E  4A3E               	infsnz	_i,f,c
  1046  005E60  2A3F               	incf	_i+1,f,c
  1047  005E62                     l3417:
  1048  005E62  0E69               	movlw	low _rede
  1049  005E64  243E               	addwf	_i,w,c
  1050  005E66  6EF6               	movwf	tblptrl,c
  1051  005E68  0E7E               	movlw	high _rede
  1052  005E6A  203F               	addwfc	_i+1,w,c
  1053  005E6C  6EF7               	movwf	tblptrh,c
  1054  005E6E  0008               	tblrd		*
  1055  005E70  50F5               	movf	tablat,w,c
  1056  005E72  0900               	iorlw	0
  1057  005E74  A4D8               	btfss	status,2,c
  1058  005E76  D7D5               	goto	l3411
  1059                           
  1060                           ;WiflySanUSB.c: 136: sendr((unsigned char *)pg1);
  1061  005E78  0E7F               	movlw	high _pg1
  1062  005E7A  6E18               	movwf	sendr@st+1,c
  1063  005E7C  0EED               	movlw	low _pg1
  1064  005E7E  6E17               	movwf	sendr@st,c
  1065  005E80  EC46  F02D         	call	_sendr	;wreg free
  1066                           
  1067                           ;WiflySanUSB.c: 137: sendnum(ADvalue);
  1068  005E84  C036  F029         	movff	_ADvalue,sendnum@sannum
  1069  005E88  C037  F02A         	movff	_ADvalue+1,sendnum@sannum+1
  1070  005E8C  EC5B  F030         	call	_sendnum	;wreg free
  1071                           
  1072                           ;WiflySanUSB.c: 138: sendr((unsigned char*)pg2);
  1073  005E90  0E7E               	movlw	high _pg2
  1074  005E92  6E18               	movwf	sendr@st+1,c
  1075  005E94  0E76               	movlw	low _pg2
  1076  005E96  6E17               	movwf	sendr@st,c
  1077  005E98  EC46  F02D         	call	_sendr	;wreg free
  1078                           
  1079                           ;WiflySanUSB.c: 139: tempo_ms(500);
  1080  005E9C  0E01               	movlw	1
  1081  005E9E  6E1B               	movwf	tempo_ms@i+1,c
  1082  005EA0  0EF4               	movlw	244
  1083  005EA2  6E1A               	movwf	tempo_ms@i,c
  1084  005EA4  ECCD  F02C         	call	_tempo_ms	;wreg free
  1085  005EA8  D79C               	goto	l3399
  1086  005EAA                     __end_of_main:
  1087                           	opt stack 0
  1088                           tblptru	equ	0xFF8
  1089                           tblptrh	equ	0xFF7
  1090                           tblptrl	equ	0xFF6
  1091                           tablat	equ	0xFF5
  1092                           prodl	equ	0xFF3
  1093                           postinc0	equ	0xFEE
  1094                           wreg	equ	0xFE8
  1095                           postdec1	equ	0xFE5
  1096                           fsr1l	equ	0xFE1
  1097                           status	equ	0xFD8
  1098                           
  1099 ;; *************** function _taxa_serial *****************
  1100 ;; Defined at:
  1101 ;;		line 441 in file "SanUSB48X.h"
  1102 ;; Parameters:    Size  Location     Type
  1103 ;;  taxa            4   33[COMRAM] unsigned long 
  1104 ;; Auto vars:     Size  Location     Type
  1105 ;;  baud_sanusb     4   45[COMRAM] unsigned long 
  1106 ;; Return value:  Size  Location     Type
  1107 ;;		None               void
  1108 ;; Registers used:
  1109 ;;		wreg, status,2, status,0, cstack
  1110 ;; Tracked objects:
  1111 ;;		On entry : 0/0
  1112 ;;		On exit  : 0/0
  1113 ;;		Unchanged: 0/0
  1114 ;; Data sizes:     COMRAM   BANK0   BANK1   BANK2   BANK3   BANK4   BANK5   BANK6   BANK7
  1115 ;;      Params:         4       0       0       0       0       0       0       0       0
  1116 ;;      Locals:         4       0       0       0       0       0       0       0       0
  1117 ;;      Temps:          8       0       0       0       0       0       0       0       0
  1118 ;;      Totals:        16       0       0       0       0       0       0       0       0
  1119 ;;Total ram usage:       16 bytes
  1120 ;; Hardware stack levels used:    1
  1121 ;; Hardware stack levels required when called:    3
  1122 ;; This function calls:
  1123 ;;		___lldiv
  1124 ;; This function is called by:
  1125 ;;		_main
  1126 ;; This function uses a non-reentrant model
  1127 ;;
  1128                           
  1129                           	psect	text1
  1130  005AE4                     __ptext1:
  1131                           	opt stack 0
  1132  005AE4                     _taxa_serial:
  1133                           	opt stack 27
  1134                           
  1135                           ;SanUSB48X.h: 442: unsigned long baud_sanusb;
  1136                           ;SanUSB48X.h: 443: TRISCbits.TRISC7=1;
  1137                           
  1138                           ;incstack = 0
  1139  005AE4  8E94               	bsf	3988,7,c	;volatile
  1140                           
  1141                           ;SanUSB48X.h: 444: TRISCbits.TRISC6=0;
  1142  005AE6  9C94               	bcf	3988,6,c	;volatile
  1143                           
  1144                           ;SanUSB48X.h: 445: TXSTA = 0x24;
  1145  005AE8  0E24               	movlw	36
  1146  005AEA  6EAC               	movwf	4012,c	;volatile
  1147                           
  1148                           ;SanUSB48X.h: 446: RCSTA = 0x90;
  1149  005AEC  0E90               	movlw	144
  1150  005AEE  6EAB               	movwf	4011,c	;volatile
  1151                           
  1152                           ;SanUSB48X.h: 447: BAUDCON = 0x08;
  1153  005AF0  0E08               	movlw	8
  1154  005AF2  6EB8               	movwf	4024,c	;volatile
  1155                           
  1156                           ;SanUSB48X.h: 449: baud_sanusb =REG+((48000000/4)/ taxa) - 1;
  1157  005AF4  0E00               	movlw	0
  1158  005AF6  6E14               	movwf	___lldiv@dividend,c
  1159  005AF8  0E1B               	movlw	27
  1160  005AFA  6E15               	movwf	___lldiv@dividend+1,c
  1161  005AFC  0EB7               	movlw	183
  1162  005AFE  6E16               	movwf	___lldiv@dividend+2,c
  1163  005B00  0E00               	movlw	0
  1164  005B02  6E17               	movwf	___lldiv@dividend+3,c
  1165  005B04  C022  F018         	movff	taxa_serial@taxa,___lldiv@divisor
  1166  005B08  C023  F019         	movff	taxa_serial@taxa+1,___lldiv@divisor+1
  1167  005B0C  C024  F01A         	movff	taxa_serial@taxa+2,___lldiv@divisor+2
  1168  005B10  C025  F01B         	movff	taxa_serial@taxa+3,___lldiv@divisor+3
  1169  005B14  ECB1  F02D         	call	___lldiv	;wreg free
  1170  005B18  C014  F026         	movff	?___lldiv,??_taxa_serial
  1171  005B1C  C015  F027         	movff	?___lldiv+1,??_taxa_serial+1
  1172  005B20  C016  F028         	movff	?___lldiv+2,??_taxa_serial+2
  1173  005B24  C017  F029         	movff	?___lldiv+3,??_taxa_serial+3
  1174  005B28  504B               	movf	_REG,w,c
  1175  005B2A  2426               	addwf	??_taxa_serial,w,c
  1176  005B2C  6E2A               	movwf	(??_taxa_serial+4)& (0+255),c
  1177  005B2E  0E00               	movlw	0
  1178  005B30  2027               	addwfc	??_taxa_serial+1,w,c
  1179  005B32  6E2B               	movwf	(??_taxa_serial+5)& (0+255),c
  1180  005B34  0E00               	movlw	0
  1181  005B36  2028               	addwfc	??_taxa_serial+2,w,c
  1182  005B38  6E2C               	movwf	(??_taxa_serial+6)& (0+255),c
  1183  005B3A  0E00               	movlw	0
  1184  005B3C  2029               	addwfc	??_taxa_serial+3,w,c
  1185  005B3E  6E2D               	movwf	(??_taxa_serial+7)& (0+255),c
  1186  005B40  0EFF               	movlw	255
  1187  005B42  242A               	addwf	??_taxa_serial+4,w,c
  1188  005B44  6E2E               	movwf	taxa_serial@baud_sanusb,c
  1189  005B46  0EFF               	movlw	255
  1190  005B48  202B               	addwfc	??_taxa_serial+5,w,c
  1191  005B4A  6E2F               	movwf	taxa_serial@baud_sanusb+1,c
  1192  005B4C  0EFF               	movlw	255
  1193  005B4E  202C               	addwfc	??_taxa_serial+6,w,c
  1194  005B50  6E30               	movwf	taxa_serial@baud_sanusb+2,c
  1195  005B52  0EFF               	movlw	255
  1196  005B54  202D               	addwfc	??_taxa_serial+7,w,c
  1197  005B56  6E31               	movwf	taxa_serial@baud_sanusb+3,c
  1198                           
  1199                           ;SanUSB48X.h: 450: SPBRGH = (unsigned char)(baud_sanusb >> 8);
  1200  005B58  C02F  FFB0         	movff	taxa_serial@baud_sanusb+1,4016	;volatile
  1201                           
  1202                           ;SanUSB48X.h: 451: SPBRG = (unsigned char)baud_sanusb;
  1203  005B5C  C02E  FFAF         	movff	taxa_serial@baud_sanusb,4015	;volatile
  1204  005B60  0012               	return	
  1205  005B62                     __end_of_taxa_serial:
  1206                           	opt stack 0
  1207                           tblptru	equ	0xFF8
  1208                           tblptrh	equ	0xFF7
  1209                           tblptrl	equ	0xFF6
  1210                           tablat	equ	0xFF5
  1211                           prodl	equ	0xFF3
  1212                           postinc0	equ	0xFEE
  1213                           wreg	equ	0xFE8
  1214                           postdec1	equ	0xFE5
  1215                           fsr1l	equ	0xFE1
  1216                           status	equ	0xFD8
  1217                           
  1218 ;; *************** function ___lldiv *****************
  1219 ;; Defined at:
  1220 ;;		line 8 in file "C:\Program Files (x86)\Microchip\xc8\v1.31\sources\common\lldiv.c"
  1221 ;; Parameters:    Size  Location     Type
  1222 ;;  dividend        4   19[COMRAM] unsigned long 
  1223 ;;  divisor         4   23[COMRAM] unsigned long 
  1224 ;; Auto vars:     Size  Location     Type
  1225 ;;  quotient        4   28[COMRAM] unsigned long 
  1226 ;;  counter         1   32[COMRAM] unsigned char 
  1227 ;; Return value:  Size  Location     Type
  1228 ;;                  4   19[COMRAM] unsigned long 
  1229 ;; Registers used:
  1230 ;;		wreg, status,2, status,0
  1231 ;; Tracked objects:
  1232 ;;		On entry : 0/0
  1233 ;;		On exit  : 0/0
  1234 ;;		Unchanged: 0/0
  1235 ;; Data sizes:     COMRAM   BANK0   BANK1   BANK2   BANK3   BANK4   BANK5   BANK6   BANK7
  1236 ;;      Params:         8       0       0       0       0       0       0       0       0
  1237 ;;      Locals:         5       0       0       0       0       0       0       0       0
  1238 ;;      Temps:          1       0       0       0       0       0       0       0       0
  1239 ;;      Totals:        14       0       0       0       0       0       0       0       0
  1240 ;;Total ram usage:       14 bytes
  1241 ;; Hardware stack levels used:    1
  1242 ;; Hardware stack levels required when called:    2
  1243 ;; This function calls:
  1244 ;;		Nothing
  1245 ;; This function is called by:
  1246 ;;		_taxa_serial
  1247 ;; This function uses a non-reentrant model
  1248 ;;
  1249                           
  1250                           	psect	text2
  1251  005B62                     __ptext2:
  1252                           	opt stack 0
  1253  005B62                     ___lldiv:
  1254                           	opt stack 27
  1255                           
  1256                           ;incstack = 0
  1257  005B62  0E00               	movlw	0
  1258  005B64  6E1D               	movwf	___lldiv@quotient,c
  1259  005B66  0E00               	movlw	0
  1260  005B68  6E1E               	movwf	___lldiv@quotient+1,c
  1261  005B6A  0E00               	movlw	0
  1262  005B6C  6E1F               	movwf	___lldiv@quotient+2,c
  1263  005B6E  0E00               	movlw	0
  1264  005B70  6E20               	movwf	___lldiv@quotient+3,c
  1265  005B72  501B               	movf	___lldiv@divisor+3,w,c
  1266  005B74  1018               	iorwf	___lldiv@divisor,w,c
  1267  005B76  1019               	iorwf	___lldiv@divisor+1,w,c
  1268  005B78  101A               	iorwf	___lldiv@divisor+2,w,c
  1269  005B7A  B4D8               	btfsc	status,2,c
  1270  005B7C  D02C               	goto	l1028
  1271  005B7E  6E1C               	movwf	??___lldiv& (0+255),c
  1272  005B80  0E01               	movlw	1
  1273  005B82  6E21               	movwf	___lldiv@counter,c
  1274  005B84  501C               	movf	??___lldiv& (0+255),w,c
  1275  005B86  D006               	goto	l1659
  1276  005B88                     l1657:
  1277  005B88  90D8               	bcf	status,0,c
  1278  005B8A  3618               	rlcf	___lldiv@divisor,f,c
  1279  005B8C  3619               	rlcf	___lldiv@divisor+1,f,c
  1280  005B8E  361A               	rlcf	___lldiv@divisor+2,f,c
  1281  005B90  361B               	rlcf	___lldiv@divisor+3,f,c
  1282  005B92  2A21               	incf	___lldiv@counter,f,c
  1283  005B94                     l1659:
  1284  005B94  AE1B               	btfss	___lldiv@divisor+3,7,c
  1285  005B96  D7F8               	goto	l1657
  1286  005B98                     l1661:
  1287  005B98  90D8               	bcf	status,0,c
  1288  005B9A  361D               	rlcf	___lldiv@quotient,f,c
  1289  005B9C  361E               	rlcf	___lldiv@quotient+1,f,c
  1290  005B9E  361F               	rlcf	___lldiv@quotient+2,f,c
  1291  005BA0  3620               	rlcf	___lldiv@quotient+3,f,c
  1292  005BA2  5018               	movf	___lldiv@divisor,w,c
  1293  005BA4  5C14               	subwf	___lldiv@dividend,w,c
  1294  005BA6  5019               	movf	___lldiv@divisor+1,w,c
  1295  005BA8  5815               	subwfb	___lldiv@dividend+1,w,c
  1296  005BAA  501A               	movf	___lldiv@divisor+2,w,c
  1297  005BAC  5816               	subwfb	___lldiv@dividend+2,w,c
  1298  005BAE  501B               	movf	___lldiv@divisor+3,w,c
  1299  005BB0  5817               	subwfb	___lldiv@dividend+3,w,c
  1300  005BB2  A0D8               	btfss	status,0,c
  1301  005BB4  D009               	goto	l1669
  1302  005BB6  5018               	movf	___lldiv@divisor,w,c
  1303  005BB8  5E14               	subwf	___lldiv@dividend,f,c
  1304  005BBA  5019               	movf	___lldiv@divisor+1,w,c
  1305  005BBC  5A15               	subwfb	___lldiv@dividend+1,f,c
  1306  005BBE  501A               	movf	___lldiv@divisor+2,w,c
  1307  005BC0  5A16               	subwfb	___lldiv@dividend+2,f,c
  1308  005BC2  501B               	movf	___lldiv@divisor+3,w,c
  1309  005BC4  5A17               	subwfb	___lldiv@dividend+3,f,c
  1310  005BC6  801D               	bsf	___lldiv@quotient,0,c
  1311  005BC8                     l1669:
  1312  005BC8  90D8               	bcf	status,0,c
  1313  005BCA  321B               	rrcf	___lldiv@divisor+3,f,c
  1314  005BCC  321A               	rrcf	___lldiv@divisor+2,f,c
  1315  005BCE  3219               	rrcf	___lldiv@divisor+1,f,c
  1316  005BD0  3218               	rrcf	___lldiv@divisor,f,c
  1317  005BD2  2E21               	decfsz	___lldiv@counter,f,c
  1318  005BD4  D7E1               	goto	l1661
  1319  005BD6                     l1028:
  1320  005BD6  C01D  F014         	movff	___lldiv@quotient,?___lldiv
  1321  005BDA  C01E  F015         	movff	___lldiv@quotient+1,?___lldiv+1
  1322  005BDE  C01F  F016         	movff	___lldiv@quotient+2,?___lldiv+2
  1323  005BE2  C020  F017         	movff	___lldiv@quotient+3,?___lldiv+3
  1324  005BE6  0012               	return	
  1325  005BE8                     __end_of___lldiv:
  1326                           	opt stack 0
  1327                           tblptru	equ	0xFF8
  1328                           tblptrh	equ	0xFF7
  1329                           tblptrl	equ	0xFF6
  1330                           tablat	equ	0xFF5
  1331                           prodl	equ	0xFF3
  1332                           postinc0	equ	0xFEE
  1333                           wreg	equ	0xFE8
  1334                           postdec1	equ	0xFE5
  1335                           fsr1l	equ	0xFE1
  1336                           status	equ	0xFD8
  1337                           
  1338 ;; *************** function _sendr *****************
  1339 ;; Defined at:
  1340 ;;		line 477 in file "SanUSB48X.h"
  1341 ;; Parameters:    Size  Location     Type
  1342 ;;  st              2   22[COMRAM] PTR unsigned char 
  1343 ;;		 -> pg2(195), pg1(17), pg(180), 
  1344 ;; Auto vars:     Size  Location     Type
  1345 ;;		None
  1346 ;; Return value:  Size  Location     Type
  1347 ;;		None               void
  1348 ;; Registers used:
  1349 ;;		wreg, status,2, status,0, tblptrl, tblptrh, tblptru, prodl, prodh, cstack
  1350 ;; Tracked objects:
  1351 ;;		On entry : 0/0
  1352 ;;		On exit  : 0/0
  1353 ;;		Unchanged: 0/0
  1354 ;; Data sizes:     COMRAM   BANK0   BANK1   BANK2   BANK3   BANK4   BANK5   BANK6   BANK7
  1355 ;;      Params:         2       0       0       0       0       0       0       0       0
  1356 ;;      Locals:         0       0       0       0       0       0       0       0       0
  1357 ;;      Temps:          2       0       0       0       0       0       0       0       0
  1358 ;;      Totals:         4       0       0       0       0       0       0       0       0
  1359 ;;Total ram usage:        4 bytes
  1360 ;; Hardware stack levels used:    1
  1361 ;; Hardware stack levels required when called:    3
  1362 ;; This function calls:
  1363 ;;		_sputc
  1364 ;; This function is called by:
  1365 ;;		_main
  1366 ;; This function uses a non-reentrant model
  1367 ;;
  1368                           
  1369                           	psect	text3
  1370  005A8C                     __ptext3:
  1371                           	opt stack 0
  1372  005A8C                     _sendr:
  1373                           	opt stack 27
  1374                           
  1375                           ;SanUSB48X.h: 478: for(k=0;st[k]!='\0';k++) {sputc(st[k]);}
  1376                           
  1377                           ;incstack = 0
  1378  005A8C  6E19               	movwf	??_sendr& (0+255),c
  1379  005A8E  0E00               	movlw	0
  1380  005A90  6E45               	movwf	_k,c
  1381  005A92  5019               	movf	??_sendr& (0+255),w,c
  1382  005A94  D013               	goto	l1837
  1383  005A96                     l1833:
  1384  005A96  5045               	movf	_k,w,c
  1385  005A98  0D01               	mullw	1
  1386  005A9A  C017  F019         	movff	sendr@st,??_sendr
  1387  005A9E  C018  F01A         	movff	sendr@st+1,??_sendr+1
  1388  005AA2  50F3               	movf	prodl,w,c
  1389  005AA4  2619               	addwf	??_sendr,f,c
  1390  005AA6  50F4               	movf	prodh,w,c
  1391  005AA8  221A               	addwfc	??_sendr+1,f,c
  1392  005AAA  C019  FFF6         	movff	??_sendr,tblptrl
  1393  005AAE  C01A  FFF7         	movff	??_sendr+1,tblptrh
  1394  005AB2  0008               	tblrd		*
  1395  005AB4  50F5               	movf	tablat,w,c
  1396  005AB6  EC56  F02C         	call	_sputc
  1397  005ABA  2A45               	incf	_k,f,c
  1398  005ABC                     l1837:
  1399  005ABC  5045               	movf	_k,w,c
  1400  005ABE  0D01               	mullw	1
  1401  005AC0  C017  F019         	movff	sendr@st,??_sendr
  1402  005AC4  C018  F01A         	movff	sendr@st+1,??_sendr+1
  1403  005AC8  50F3               	movf	prodl,w,c
  1404  005ACA  2619               	addwf	??_sendr,f,c
  1405  005ACC  50F4               	movf	prodh,w,c
  1406  005ACE  221A               	addwfc	??_sendr+1,f,c
  1407  005AD0  C019  FFF6         	movff	??_sendr,tblptrl
  1408  005AD4  C01A  FFF7         	movff	??_sendr+1,tblptrh
  1409  005AD8  0008               	tblrd		*
  1410  005ADA  50F5               	movf	tablat,w,c
  1411  005ADC  0900               	iorlw	0
  1412  005ADE  B4D8               	btfsc	status,2,c
  1413  005AE0  0012               	return	
  1414  005AE2  D7D9               	goto	l1833
  1415  005AE4                     __end_of_sendr:
  1416                           	opt stack 0
  1417                           tblptru	equ	0xFF8
  1418                           tblptrh	equ	0xFF7
  1419                           tblptrl	equ	0xFF6
  1420                           tablat	equ	0xFF5
  1421                           prodh	equ	0xFF4
  1422                           prodl	equ	0xFF3
  1423                           postinc0	equ	0xFEE
  1424                           wreg	equ	0xFE8
  1425                           postdec1	equ	0xFE5
  1426                           fsr1l	equ	0xFE1
  1427                           status	equ	0xFD8
  1428                           
  1429 ;; *************** function _sendnum *****************
  1430 ;; Defined at:
  1431 ;;		line 488 in file "SanUSB48X.h"
  1432 ;; Parameters:    Size  Location     Type
  1433 ;;  sannum          2   40[COMRAM] unsigned int 
  1434 ;; Auto vars:     Size  Location     Type
  1435 ;;		None
  1436 ;; Return value:  Size  Location     Type
  1437 ;;		None               void
  1438 ;; Registers used:
  1439 ;;		wreg, status,2, status,0, cstack
  1440 ;; Tracked objects:
  1441 ;;		On entry : 0/0
  1442 ;;		On exit  : 0/0
  1443 ;;		Unchanged: 0/0
  1444 ;; Data sizes:     COMRAM   BANK0   BANK1   BANK2   BANK3   BANK4   BANK5   BANK6   BANK7
  1445 ;;      Params:         2       0       0       0       0       0       0       0       0
  1446 ;;      Locals:         0       0       0       0       0       0       0       0       0
  1447 ;;      Temps:          0       0       0       0       0       0       0       0       0
  1448 ;;      Totals:         2       0       0       0       0       0       0       0       0
  1449 ;;Total ram usage:        2 bytes
  1450 ;; Hardware stack levels used:    1
  1451 ;; Hardware stack levels required when called:    3
  1452 ;; This function calls:
  1453 ;;		___lwdiv
  1454 ;;		___lwmod
  1455 ;;		_swputc
  1456 ;; This function is called by:
  1457 ;;		_main
  1458 ;; This function uses a non-reentrant model
  1459 ;;
  1460                           
  1461                           	psect	text4
  1462  0060B6                     __ptext4:
  1463                           	opt stack 0
  1464  0060B6                     _sendnum:
  1465                           	opt stack 27
  1466                           
  1467                           ;SanUSB48X.h: 490: if(sannum > 9999) {
  1468                           
  1469                           ;incstack = 0
  1470  0060B6  0E10               	movlw	16
  1471  0060B8  5C29               	subwf	sendnum@sannum,w,c
  1472  0060BA  0E27               	movlw	39
  1473  0060BC  582A               	subwfb	sendnum@sannum+1,w,c
  1474  0060BE  A0D8               	btfss	status,0,c
  1475  0060C0  D019               	goto	l1843
  1476                           
  1477                           ;SanUSB48X.h: 491: swputc(((sannum / 10000) % 10)+REG+0x30);
  1478  0060C2  0E27               	movlw	39
  1479  0060C4  6E1E               	movwf	___lwdiv@divisor+1,c
  1480  0060C6  0E10               	movlw	16
  1481  0060C8  6E1D               	movwf	___lwdiv@divisor,c
  1482  0060CA  C029  F01B         	movff	sendnum@sannum,___lwdiv@dividend
  1483  0060CE  C02A  F01C         	movff	sendnum@sannum+1,___lwdiv@dividend+1
  1484  0060D2  EC1B  F02D         	call	___lwdiv	;wreg free
  1485  0060D6  C01B  F023         	movff	?___lwdiv,___lwmod@dividend
  1486  0060DA  C01C  F024         	movff	?___lwdiv+1,___lwmod@dividend+1
  1487  0060DE  0E00               	movlw	0
  1488  0060E0  6E26               	movwf	___lwmod@divisor+1,c
  1489  0060E2  0E0A               	movlw	10
  1490  0060E4  6E25               	movwf	___lwmod@divisor,c
  1491  0060E6  ECAA  F02C         	call	___lwmod	;wreg free
  1492  0060EA  5023               	movf	?___lwmod,w,c
  1493  0060EC  244B               	addwf	_REG,w,c
  1494  0060EE  0F30               	addlw	48
  1495  0060F0  EC23  F02C         	call	_swputc
  1496  0060F4                     l1843:
  1497                           
  1498                           ;SanUSB48X.h: 492: }
  1499                           ;SanUSB48X.h: 493: if(sannum > 999) {
  1500  0060F4  0EE8               	movlw	232
  1501  0060F6  5C29               	subwf	sendnum@sannum,w,c
  1502  0060F8  0E03               	movlw	3
  1503  0060FA  582A               	subwfb	sendnum@sannum+1,w,c
  1504  0060FC  A0D8               	btfss	status,0,c
  1505  0060FE  D018               	goto	l1847
  1506                           
  1507                           ;SanUSB48X.h: 494: swputc(((sannum / 1000) % 10)+0x30);
  1508  006100  0E03               	movlw	3
  1509  006102  6E1E               	movwf	___lwdiv@divisor+1,c
  1510  006104  0EE8               	movlw	232
  1511  006106  6E1D               	movwf	___lwdiv@divisor,c
  1512  006108  C029  F01B         	movff	sendnum@sannum,___lwdiv@dividend
  1513  00610C  C02A  F01C         	movff	sendnum@sannum+1,___lwdiv@dividend+1
  1514  006110  EC1B  F02D         	call	___lwdiv	;wreg free
  1515  006114  C01B  F023         	movff	?___lwdiv,___lwmod@dividend
  1516  006118  C01C  F024         	movff	?___lwdiv+1,___lwmod@dividend+1
  1517  00611C  0E00               	movlw	0
  1518  00611E  6E26               	movwf	___lwmod@divisor+1,c
  1519  006120  0E0A               	movlw	10
  1520  006122  6E25               	movwf	___lwmod@divisor,c
  1521  006124  ECAA  F02C         	call	___lwmod	;wreg free
  1522  006128  5023               	movf	?___lwmod,w,c
  1523  00612A  0F30               	addlw	48
  1524  00612C  EC23  F02C         	call	_swputc
  1525  006130                     l1847:
  1526                           
  1527                           ;SanUSB48X.h: 495: }
  1528                           ;SanUSB48X.h: 496: if(sannum > 99) {
  1529  006130  0E64               	movlw	100
  1530  006132  5C29               	subwf	sendnum@sannum,w,c
  1531  006134  0E00               	movlw	0
  1532  006136  582A               	subwfb	sendnum@sannum+1,w,c
  1533  006138  A0D8               	btfss	status,0,c
  1534  00613A  D019               	goto	l1851
  1535                           
  1536                           ;SanUSB48X.h: 497: swputc(((sannum / 100) % 10)+REG+0x30);
  1537  00613C  0E00               	movlw	0
  1538  00613E  6E1E               	movwf	___lwdiv@divisor+1,c
  1539  006140  0E64               	movlw	100
  1540  006142  6E1D               	movwf	___lwdiv@divisor,c
  1541  006144  C029  F01B         	movff	sendnum@sannum,___lwdiv@dividend
  1542  006148  C02A  F01C         	movff	sendnum@sannum+1,___lwdiv@dividend+1
  1543  00614C  EC1B  F02D         	call	___lwdiv	;wreg free
  1544  006150  C01B  F023         	movff	?___lwdiv,___lwmod@dividend
  1545  006154  C01C  F024         	movff	?___lwdiv+1,___lwmod@dividend+1
  1546  006158  0E00               	movlw	0
  1547  00615A  6E26               	movwf	___lwmod@divisor+1,c
  1548  00615C  0E0A               	movlw	10
  1549  00615E  6E25               	movwf	___lwmod@divisor,c
  1550  006160  ECAA  F02C         	call	___lwmod	;wreg free
  1551  006164  5023               	movf	?___lwmod,w,c
  1552  006166  244B               	addwf	_REG,w,c
  1553  006168  0F30               	addlw	48
  1554  00616A  EC23  F02C         	call	_swputc
  1555  00616E                     l1851:
  1556                           
  1557                           ;SanUSB48X.h: 498: }
  1558                           ;SanUSB48X.h: 499: if(sannum > 9) {
  1559  00616E  0E0A               	movlw	10
  1560  006170  5C29               	subwf	sendnum@sannum,w,c
  1561  006172  0E00               	movlw	0
  1562  006174  582A               	subwfb	sendnum@sannum+1,w,c
  1563  006176  A0D8               	btfss	status,0,c
  1564  006178  D019               	goto	l430
  1565                           
  1566                           ;SanUSB48X.h: 500: swputc(((sannum / 10) % 10)+REG+0x30);
  1567  00617A  0E00               	movlw	0
  1568  00617C  6E1E               	movwf	___lwdiv@divisor+1,c
  1569  00617E  0E0A               	movlw	10
  1570  006180  6E1D               	movwf	___lwdiv@divisor,c
  1571  006182  C029  F01B         	movff	sendnum@sannum,___lwdiv@dividend
  1572  006186  C02A  F01C         	movff	sendnum@sannum+1,___lwdiv@dividend+1
  1573  00618A  EC1B  F02D         	call	___lwdiv	;wreg free
  1574  00618E  C01B  F023         	movff	?___lwdiv,___lwmod@dividend
  1575  006192  C01C  F024         	movff	?___lwdiv+1,___lwmod@dividend+1
  1576  006196  0E00               	movlw	0
  1577  006198  6E26               	movwf	___lwmod@divisor+1,c
  1578  00619A  0E0A               	movlw	10
  1579  00619C  6E25               	movwf	___lwmod@divisor,c
  1580  00619E  ECAA  F02C         	call	___lwmod	;wreg free
  1581  0061A2  5023               	movf	?___lwmod,w,c
  1582  0061A4  244B               	addwf	_REG,w,c
  1583  0061A6  0F30               	addlw	48
  1584  0061A8  EC23  F02C         	call	_swputc
  1585  0061AC                     l430:
  1586                           
  1587                           ;SanUSB48X.h: 501: }
  1588                           ;SanUSB48X.h: 502: swputc((sannum % 10)+REG+0x30) ;
  1589  0061AC  C029  F023         	movff	sendnum@sannum,___lwmod@dividend
  1590  0061B0  C02A  F024         	movff	sendnum@sannum+1,___lwmod@dividend+1
  1591  0061B4  0E00               	movlw	0
  1592  0061B6  6E26               	movwf	___lwmod@divisor+1,c
  1593  0061B8  0E0A               	movlw	10
  1594  0061BA  6E25               	movwf	___lwmod@divisor,c
  1595  0061BC  ECAA  F02C         	call	___lwmod	;wreg free
  1596  0061C0  5023               	movf	?___lwmod,w,c
  1597  0061C2  244B               	addwf	_REG,w,c
  1598  0061C4  0F30               	addlw	48
  1599  0061C6  EC23  F02C         	call	_swputc
  1600  0061CA  0012               	return	
  1601  0061CC                     __end_of_sendnum:
  1602                           	opt stack 0
  1603                           tblptru	equ	0xFF8
  1604                           tblptrh	equ	0xFF7
  1605                           tblptrl	equ	0xFF6
  1606                           tablat	equ	0xFF5
  1607                           prodh	equ	0xFF4
  1608                           prodl	equ	0xFF3
  1609                           postinc0	equ	0xFEE
  1610                           wreg	equ	0xFE8
  1611                           postdec1	equ	0xFE5
  1612                           fsr1l	equ	0xFE1
  1613                           status	equ	0xFD8
  1614                           
  1615 ;; *************** function ___lwmod *****************
  1616 ;; Defined at:
  1617 ;;		line 8 in file "C:\Program Files (x86)\Microchip\xc8\v1.31\sources\common\lwmod.c"
  1618 ;; Parameters:    Size  Location     Type
  1619 ;;  dividend        2   34[COMRAM] unsigned int 
  1620 ;;  divisor         2   36[COMRAM] unsigned int 
  1621 ;; Auto vars:     Size  Location     Type
  1622 ;;  counter         1   39[COMRAM] unsigned char 
  1623 ;; Return value:  Size  Location     Type
  1624 ;;                  2   34[COMRAM] unsigned int 
  1625 ;; Registers used:
  1626 ;;		wreg, status,2, status,0
  1627 ;; Tracked objects:
  1628 ;;		On entry : 0/0
  1629 ;;		On exit  : 0/0
  1630 ;;		Unchanged: 0/0
  1631 ;; Data sizes:     COMRAM   BANK0   BANK1   BANK2   BANK3   BANK4   BANK5   BANK6   BANK7
  1632 ;;      Params:         4       0       0       0       0       0       0       0       0
  1633 ;;      Locals:         1       0       0       0       0       0       0       0       0
  1634 ;;      Temps:          1       0       0       0       0       0       0       0       0
  1635 ;;      Totals:         6       0       0       0       0       0       0       0       0
  1636 ;;Total ram usage:        6 bytes
  1637 ;; Hardware stack levels used:    1
  1638 ;; Hardware stack levels required when called:    2
  1639 ;; This function calls:
  1640 ;;		Nothing
  1641 ;; This function is called by:
  1642 ;;		_sendnum
  1643 ;; This function uses a non-reentrant model
  1644 ;;
  1645                           
  1646                           	psect	text5
  1647  005954                     __ptext5:
  1648                           	opt stack 0
  1649  005954                     ___lwmod:
  1650                           	opt stack 27
  1651                           
  1652                           ;incstack = 0
  1653  005954  5026               	movf	___lwmod@divisor+1,w,c
  1654  005956  1025               	iorwf	___lwmod@divisor,w,c
  1655  005958  B4D8               	btfsc	status,2,c
  1656  00595A  D01A               	goto	l1107
  1657  00595C  6E27               	movwf	??___lwmod& (0+255),c
  1658  00595E  0E01               	movlw	1
  1659  005960  6E28               	movwf	___lwmod@counter,c
  1660  005962  5027               	movf	??___lwmod& (0+255),w,c
  1661  005964  D004               	goto	l1701
  1662  005966                     l1699:
  1663  005966  90D8               	bcf	status,0,c
  1664  005968  3625               	rlcf	___lwmod@divisor,f,c
  1665  00596A  3626               	rlcf	___lwmod@divisor+1,f,c
  1666  00596C  2A28               	incf	___lwmod@counter,f,c
  1667  00596E                     l1701:
  1668  00596E  AE26               	btfss	___lwmod@divisor+1,7,c
  1669  005970  D7FA               	goto	l1699
  1670  005972                     l1703:
  1671  005972  5025               	movf	___lwmod@divisor,w,c
  1672  005974  5C23               	subwf	___lwmod@dividend,w,c
  1673  005976  5026               	movf	___lwmod@divisor+1,w,c
  1674  005978  5824               	subwfb	___lwmod@dividend+1,w,c
  1675  00597A  A0D8               	btfss	status,0,c
  1676  00597C  D004               	goto	l1707
  1677  00597E  5025               	movf	___lwmod@divisor,w,c
  1678  005980  5E23               	subwf	___lwmod@dividend,f,c
  1679  005982  5026               	movf	___lwmod@divisor+1,w,c
  1680  005984  5A24               	subwfb	___lwmod@dividend+1,f,c
  1681  005986                     l1707:
  1682  005986  90D8               	bcf	status,0,c
  1683  005988  3226               	rrcf	___lwmod@divisor+1,f,c
  1684  00598A  3225               	rrcf	___lwmod@divisor,f,c
  1685  00598C  2E28               	decfsz	___lwmod@counter,f,c
  1686  00598E  D7F1               	goto	l1703
  1687  005990                     l1107:
  1688  005990  C023  F023         	movff	___lwmod@dividend,?___lwmod
  1689  005994  C024  F024         	movff	___lwmod@dividend+1,?___lwmod+1
  1690  005998  0012               	return	
  1691  00599A                     __end_of___lwmod:
  1692                           	opt stack 0
  1693                           tblptru	equ	0xFF8
  1694                           tblptrh	equ	0xFF7
  1695                           tblptrl	equ	0xFF6
  1696                           tablat	equ	0xFF5
  1697                           prodh	equ	0xFF4
  1698                           prodl	equ	0xFF3
  1699                           postinc0	equ	0xFEE
  1700                           wreg	equ	0xFE8
  1701                           postdec1	equ	0xFE5
  1702                           fsr1l	equ	0xFE1
  1703                           status	equ	0xFD8
  1704                           
  1705 ;; *************** function _le_AD10bits *****************
  1706 ;; Defined at:
  1707 ;;		line 335 in file "SanUSB48X.h"
  1708 ;; Parameters:    Size  Location     Type
  1709 ;;  conv            1    wreg     unsigned char 
  1710 ;; Auto vars:     Size  Location     Type
  1711 ;;  conv            1   31[COMRAM] unsigned char 
  1712 ;; Return value:  Size  Location     Type
  1713 ;;                  2   29[COMRAM] unsigned int 
  1714 ;; Registers used:
  1715 ;;		wreg, status,2, status,0, prodl, prodh, cstack
  1716 ;; Tracked objects:
  1717 ;;		On entry : 0/0
  1718 ;;		On exit  : 0/0
  1719 ;;		Unchanged: 0/0
  1720 ;; Data sizes:     COMRAM   BANK0   BANK1   BANK2   BANK3   BANK4   BANK5   BANK6   BANK7
  1721 ;;      Params:         2       0       0       0       0       0       0       0       0
  1722 ;;      Locals:         1       0       0       0       0       0       0       0       0
  1723 ;;      Temps:          0       0       0       0       0       0       0       0       0
  1724 ;;      Totals:         3       0       0       0       0       0       0       0       0
  1725 ;;Total ram usage:        3 bytes
  1726 ;; Hardware stack levels used:    1
  1727 ;; Hardware stack levels required when called:    4
  1728 ;; This function calls:
  1729 ;;		_tempo_ms
  1730 ;; This function is called by:
  1731 ;;		_main
  1732 ;; This function uses a non-reentrant model
  1733 ;;
  1734                           
  1735                           	psect	text6
  1736  005BE8                     __ptext6:
  1737                           	opt stack 0
  1738  005BE8                     _le_AD10bits:
  1739                           	opt stack 26
  1740                           
  1741                           ;incstack = 0
  1742                           ;le_AD10bits@conv stored from wreg
  1743  005BE8  CFE8 F020          	movff	wreg,le_AD10bits@conv
  1744                           
  1745                           ;SanUSB48X.h: 336: switch(conv){
  1746  005BEC  D015               	goto	l1805
  1747  005BEE                     l1783:
  1748  005BEE  0E01               	movlw	1
  1749  005BF0  D011               	goto	L9
  1750  005BF2                     l1785:
  1751  005BF2  0E05               	movlw	5
  1752  005BF4  D00F               	goto	L9
  1753  005BF6                     l1787:
  1754  005BF6  0E09               	movlw	9
  1755  005BF8  D00D               	goto	L9
  1756  005BFA                     l1789:
  1757  005BFA  0E0D               	movlw	13
  1758  005BFC  D00B               	goto	L9
  1759  005BFE                     l1791:
  1760  005BFE  0E11               	movlw	17
  1761  005C00  D009               	goto	L9
  1762  005C02                     l1793:
  1763  005C02  0E21               	movlw	33
  1764  005C04  D007               	goto	L9
  1765  005C06                     l1795:
  1766  005C06  0E25               	movlw	37
  1767  005C08  D005               	goto	L9
  1768  005C0A                     l1797:
  1769  005C0A  0E29               	movlw	41
  1770  005C0C  D003               	goto	L9
  1771  005C0E                     l1799:
  1772  005C0E  0E2D               	movlw	45
  1773  005C10  D001               	goto	L9
  1774  005C12                     l1801:
  1775  005C12  0E31               	movlw	49
  1776  005C14                     L9:
  1777  005C14  6EC2               	movwf	4034,c	;volatile
  1778  005C16  D01F               	goto	l1807
  1779  005C18                     l1805:
  1780  005C18  5020               	movf	le_AD10bits@conv,w,c
  1781                           
  1782                           ; Switch size 1, requested type "space"
  1783                           ; Number of cases is 10, Range of values is 0 to 12
  1784                           ; switch strategies available:
  1785                           ; Name         Instructions Cycles
  1786                           ; simple_byte           31    16 (average)
  1787                           ;	Chosen strategy is simple_byte
  1788  005C1A  0A00               	xorlw	0	; case 0
  1789  005C1C  B4D8               	btfsc	status,2,c
  1790  005C1E  D7E7               	goto	l1783
  1791  005C20  0A01               	xorlw	1	; case 1
  1792  005C22  B4D8               	btfsc	status,2,c
  1793  005C24  D7E6               	goto	l1785
  1794  005C26  0A03               	xorlw	3	; case 2
  1795  005C28  B4D8               	btfsc	status,2,c
  1796  005C2A  D7E5               	goto	l1787
  1797  005C2C  0A01               	xorlw	1	; case 3
  1798  005C2E  B4D8               	btfsc	status,2,c
  1799  005C30  D7E4               	goto	l1789
  1800  005C32  0A07               	xorlw	7	; case 4
  1801  005C34  B4D8               	btfsc	status,2,c
  1802  005C36  D7E3               	goto	l1791
  1803  005C38  0A0C               	xorlw	12	; case 8
  1804  005C3A  B4D8               	btfsc	status,2,c
  1805  005C3C  D7E2               	goto	l1793
  1806  005C3E  0A01               	xorlw	1	; case 9
  1807  005C40  B4D8               	btfsc	status,2,c
  1808  005C42  D7E1               	goto	l1795
  1809  005C44  0A03               	xorlw	3	; case 10
  1810  005C46  B4D8               	btfsc	status,2,c
  1811  005C48  D7E0               	goto	l1797
  1812  005C4A  0A01               	xorlw	1	; case 11
  1813  005C4C  B4D8               	btfsc	status,2,c
  1814  005C4E  D7DF               	goto	l1799
  1815  005C50  0A07               	xorlw	7	; case 12
  1816  005C52  B4D8               	btfsc	status,2,c
  1817  005C54  D7DE               	goto	l1801
  1818  005C56                     l1807:
  1819                           
  1820                           ;SanUSB48X.h: 347: tempo_ms(10);
  1821  005C56  0E00               	movlw	0
  1822  005C58  6E1B               	movwf	tempo_ms@i+1,c
  1823  005C5A  0E0A               	movlw	10
  1824  005C5C  6E1A               	movwf	tempo_ms@i,c
  1825  005C5E  ECCD  F02C         	call	_tempo_ms	;wreg free
  1826                           
  1827                           ;SanUSB48X.h: 348: ADCON2bits.ADFM=1;
  1828  005C62  8EC0               	bsf	4032,7,c	;volatile
  1829                           
  1830                           ;SanUSB48X.h: 349: ADCON0bits.GO = 1;
  1831  005C64  82C2               	bsf	4034,1,c	;volatile
  1832  005C66                     l328:
  1833  005C66  B2C2               	btfsc	4034,1,c	;volatile
  1834  005C68  D7FE               	goto	l328
  1835                           
  1836                           ;SanUSB48X.h: 351: return ADRES; }
  1837  005C6A  CFC3 F01E          	movff	4035,?_le_AD10bits	;volatile
  1838  005C6E  CFC4 F01F          	movff	4036,?_le_AD10bits+1	;volatile
  1839  005C72  0012               	return	
  1840  005C74                     __end_of_le_AD10bits:
  1841                           	opt stack 0
  1842                           tblptru	equ	0xFF8
  1843                           tblptrh	equ	0xFF7
  1844                           tblptrl	equ	0xFF6
  1845                           tablat	equ	0xFF5
  1846                           prodh	equ	0xFF4
  1847                           prodl	equ	0xFF3
  1848                           postinc0	equ	0xFEE
  1849                           wreg	equ	0xFE8
  1850                           postdec1	equ	0xFE5
  1851                           fsr1l	equ	0xFE1
  1852                           status	equ	0xFD8
  1853                           
  1854 ;; *************** function _iniws *****************
  1855 ;; Defined at:
  1856 ;;		line 6 in file "confws.h"
  1857 ;; Parameters:    Size  Location     Type
  1858 ;;		None
  1859 ;; Auto vars:     Size  Location     Type
  1860 ;;  i               1   30[COMRAM] unsigned char 
  1861 ;; Return value:  Size  Location     Type
  1862 ;;		None               void
  1863 ;; Registers used:
  1864 ;;		wreg, status,2, status,0, tblptrl, tblptrh, tblptru, prodl, prodh, cstack
  1865 ;; Tracked objects:
  1866 ;;		On entry : 0/0
  1867 ;;		On exit  : 0/0
  1868 ;;		Unchanged: 0/0
  1869 ;; Data sizes:     COMRAM   BANK0   BANK1   BANK2   BANK3   BANK4   BANK5   BANK6   BANK7
  1870 ;;      Params:         0       0       0       0       0       0       0       0       0
  1871 ;;      Locals:         1       0       0       0       0       0       0       0       0
  1872 ;;      Temps:          1       0       0       0       0       0       0       0       0
  1873 ;;      Totals:         2       0       0       0       0       0       0       0       0
  1874 ;;Total ram usage:        2 bytes
  1875 ;; Hardware stack levels used:    1
  1876 ;; Hardware stack levels required when called:    4
  1877 ;; This function calls:
  1878 ;;		_inverte_saida
  1879 ;;		_sputc
  1880 ;;		_swputc
  1881 ;;		_tempo_ms
  1882 ;; This function is called by:
  1883 ;;		_main
  1884 ;; This function uses a non-reentrant model
  1885 ;;
  1886                           
  1887                           	psect	text7
  1888  0065F6                     __ptext7:
  1889                           	opt stack 0
  1890  0065F6                     _iniws:
  1891                           	opt stack 26
  1892                           
  1893                           ;confws.h: 7: unsigned char i=17;
  1894                           
  1895                           ;incstack = 0
  1896  0065F6  6E1E               	movwf	??_iniws& (0+255),c
  1897  0065F8  0E11               	movlw	17
  1898  0065FA  6E1F               	movwf	iniws@i,c
  1899  0065FC  501E               	movf	??_iniws& (0+255),w,c
  1900                           
  1901                           ;confws.h: 8: SPBRGH =0x02; SPBRG = 0x70;
  1902  0065FE  0E02               	movlw	2
  1903  006600  6EB0               	movwf	4016,c	;volatile
  1904  006602  0E70               	movlw	112
  1905  006604  6EAF               	movwf	4015,c	;volatile
  1906                           
  1907                           ;confws.h: 9: tempo_ms(2000);
  1908  006606  0E07               	movlw	7
  1909  006608  6E1B               	movwf	tempo_ms@i+1,c
  1910  00660A  0ED0               	movlw	208
  1911  00660C  6E1A               	movwf	tempo_ms@i,c
  1912  00660E  ECCD  F02C         	call	_tempo_ms	;wreg free
  1913                           
  1914                           ;confws.h: 11: sputc(56+i);sputc(72);sputc(72);inverte_saida(31759);tempo_ms (500);
  1915  006612  501F               	movf	iniws@i,w,c
  1916  006614  0F38               	addlw	56
  1917  006616  EC56  F02C         	call	_sputc
  1918  00661A  0E48               	movlw	72
  1919  00661C  EC56  F02C         	call	_sputc
  1920  006620  0E48               	movlw	72
  1921  006622  EC56  F02C         	call	_sputc
  1922  006626  0E7C               	movlw	124
  1923  006628  6E15               	movwf	inverte_saida@pino+1,c
  1924  00662A  0E0F               	movlw	15
  1925  00662C  6E14               	movwf	inverte_saida@pino,c
  1926  00662E  ECD8  F02F         	call	_inverte_saida	;wreg free
  1927  006632  0E01               	movlw	1
  1928  006634  6E1B               	movwf	tempo_ms@i+1,c
  1929  006636  0EF4               	movlw	244
  1930  006638  6E1A               	movwf	tempo_ms@i,c
  1931  00663A  ECCD  F02C         	call	_tempo_ms	;wreg free
  1932                           
  1933                           ;confws.h: 12: inverte_saida(31759);
  1934  00663E  0E7C               	movlw	124
  1935  006640  6E15               	movwf	inverte_saida@pino+1,c
  1936  006642  0E0F               	movlw	15
  1937  006644  6E14               	movwf	inverte_saida@pino,c
  1938  006646  ECD8  F02F         	call	_inverte_saida	;wreg free
  1939                           
  1940                           ;confws.h: 13: while (AT1==0){ SPBRGH=0x04; SPBRG=0xE1;
  1941  00664A  D01A               	goto	l1903
  1942  00664C                     l1891:
  1943  00664C  0E04               	movlw	4
  1944  00664E  6EB0               	movwf	4016,c	;volatile
  1945  006650  0EE1               	movlw	225
  1946  006652  6EAF               	movwf	4015,c	;volatile
  1947                           
  1948                           ;confws.h: 14: tempo_ms (4000);sputc(56+i);sputc(72);sputc(72);
  1949  006654  0E0F               	movlw	15
  1950  006656  6E1B               	movwf	tempo_ms@i+1,c
  1951  006658  0EA0               	movlw	160
  1952  00665A  6E1A               	movwf	tempo_ms@i,c
  1953  00665C  ECCD  F02C         	call	_tempo_ms	;wreg free
  1954  006660  501F               	movf	iniws@i,w,c
  1955  006662  0F38               	addlw	56
  1956  006664  EC56  F02C         	call	_sputc
  1957  006668  0E48               	movlw	72
  1958  00666A  EC56  F02C         	call	_sputc
  1959  00666E  0E48               	movlw	72
  1960  006670  EC56  F02C         	call	_sputc
  1961                           
  1962                           ;confws.h: 15: inverte_saida(31759);}
  1963  006674  0E7C               	movlw	124
  1964  006676  6E15               	movwf	inverte_saida@pino+1,c
  1965  006678  0E0F               	movlw	15
  1966  00667A  6E14               	movwf	inverte_saida@pino,c
  1967  00667C  ECD8  F02F         	call	_inverte_saida	;wreg free
  1968  006680                     l1903:
  1969  006680  5039               	movf	_AT1+1,w,c
  1970  006682  1038               	iorwf	_AT1,w,c
  1971  006684  B4D8               	btfsc	status,2,c
  1972  006686  D7E2               	goto	l1891
  1973                           
  1974                           ;confws.h: 16: AT1=0;--i;
  1975  006688  0E00               	movlw	0
  1976  00668A  6E39               	movwf	_AT1+1,c
  1977  00668C  0E00               	movlw	0
  1978  00668E  6E38               	movwf	_AT1,c
  1979  006690  061F               	decf	iniws@i,f,c
  1980                           
  1981                           ;confws.h: 18: sputc(189+i);sputc(194);sputc(198);sputc(232);sputc(222);sputc(228);
  1982  006692  501F               	movf	iniws@i,w,c
  1983  006694  0FBD               	addlw	189
  1984  006696  EC56  F02C         	call	_sputc
  1985  00669A  0EC2               	movlw	194
  1986  00669C  EC56  F02C         	call	_sputc
  1987  0066A0  0EC6               	movlw	198
  1988  0066A2  EC56  F02C         	call	_sputc
  1989  0066A6  0EE8               	movlw	232
  1990  0066A8  EC56  F02C         	call	_sputc
  1991  0066AC  0EDE               	movlw	222
  1992  0066AE  EC56  F02C         	call	_sputc
  1993  0066B2  0EE4               	movlw	228
  1994  0066B4  EC56  F02C         	call	_sputc
  1995                           
  1996                           ;confws.h: 19: sputc(242);sputc(64);sputc(164);sputc(26);
  1997  0066B8  0EF2               	movlw	242
  1998  0066BA  EC56  F02C         	call	_sputc
  1999  0066BE  0E40               	movlw	64
  2000  0066C0  EC56  F02C         	call	_sputc
  2001  0066C4  0EA4               	movlw	164
  2002  0066C6  EC56  F02C         	call	_sputc
  2003  0066CA  0E1A               	movlw	26
  2004  0066CC  EC56  F02C         	call	_sputc
  2005                           
  2006                           ;confws.h: 20: tempo_ms (1000);inverte_saida(31759);
  2007  0066D0  0E03               	movlw	3
  2008  0066D2  6E1B               	movwf	tempo_ms@i+1,c
  2009  0066D4  0EE8               	movlw	232
  2010  0066D6  6E1A               	movwf	tempo_ms@i,c
  2011  0066D8  ECCD  F02C         	call	_tempo_ms	;wreg free
  2012  0066DC  0E7C               	movlw	124
  2013  0066DE  6E15               	movwf	inverte_saida@pino+1,c
  2014  0066E0  0E0F               	movlw	15
  2015  0066E2  6E14               	movwf	inverte_saida@pino,c
  2016  0066E4  ECD8  F02F         	call	_inverte_saida	;wreg free
  2017                           
  2018                           ;confws.h: 21: while (AT1==0){ tempo_ms (2000);
  2019  0066E8  D02B               	goto	l1957
  2020  0066EA                     l1933:
  2021  0066EA  0E07               	movlw	7
  2022  0066EC  6E1B               	movwf	tempo_ms@i+1,c
  2023  0066EE  0ED0               	movlw	208
  2024  0066F0  6E1A               	movwf	tempo_ms@i,c
  2025  0066F2  ECCD  F02C         	call	_tempo_ms	;wreg free
  2026                           
  2027                           ;confws.h: 22: sputc(189+i);sputc(194);sputc(198);sputc(232);sputc(222);sputc(228);
  2028  0066F6  501F               	movf	iniws@i,w,c
  2029  0066F8  0FBD               	addlw	189
  2030  0066FA  EC56  F02C         	call	_sputc
  2031  0066FE  0EC2               	movlw	194
  2032  006700  EC56  F02C         	call	_sputc
  2033  006704  0EC6               	movlw	198
  2034  006706  EC56  F02C         	call	_sputc
  2035  00670A  0EE8               	movlw	232
  2036  00670C  EC56  F02C         	call	_sputc
  2037  006710  0EDE               	movlw	222
  2038  006712  EC56  F02C         	call	_sputc
  2039  006716  0EE4               	movlw	228
  2040  006718  EC56  F02C         	call	_sputc
  2041                           
  2042                           ;confws.h: 23: sputc(242);sputc(64);sputc(164);sputc(26);
  2043  00671C  0EF2               	movlw	242
  2044  00671E  EC56  F02C         	call	_sputc
  2045  006722  0E40               	movlw	64
  2046  006724  EC56  F02C         	call	_sputc
  2047  006728  0EA4               	movlw	164
  2048  00672A  EC56  F02C         	call	_sputc
  2049  00672E  0E1A               	movlw	26
  2050  006730  EC56  F02C         	call	_sputc
  2051                           
  2052                           ;confws.h: 24: inverte_saida(31759);}
  2053  006734  0E7C               	movlw	124
  2054  006736  6E15               	movwf	inverte_saida@pino+1,c
  2055  006738  0E0F               	movlw	15
  2056  00673A  6E14               	movwf	inverte_saida@pino,c
  2057  00673C  ECD8  F02F         	call	_inverte_saida	;wreg free
  2058  006740                     l1957:
  2059  006740  5039               	movf	_AT1+1,w,c
  2060  006742  1038               	iorwf	_AT1,w,c
  2061  006744  B4D8               	btfsc	status,2,c
  2062  006746  D7D1               	goto	l1933
  2063                           
  2064                           ;confws.h: 25: AT1=0;--i;
  2065  006748  0E00               	movlw	0
  2066  00674A  6E39               	movwf	_AT1+1,c
  2067  00674C  0E00               	movlw	0
  2068  00674E  6E38               	movwf	_AT1,c
  2069  006750  061F               	decf	iniws@i,f,c
  2070                           
  2071                           ;confws.h: 27: sputc(216+i);sputc(202);sputc(232);sputc(64);sputc(210);sputc(64);sputc(1
      +                          94);
  2072  006752  501F               	movf	iniws@i,w,c
  2073  006754  0FD8               	addlw	216
  2074  006756  EC56  F02C         	call	_sputc
  2075  00675A  0ECA               	movlw	202
  2076  00675C  EC56  F02C         	call	_sputc
  2077  006760  0EE8               	movlw	232
  2078  006762  EC56  F02C         	call	_sputc
  2079  006766  0E40               	movlw	64
  2080  006768  EC56  F02C         	call	_sputc
  2081  00676C  0ED2               	movlw	210
  2082  00676E  EC56  F02C         	call	_sputc
  2083  006772  0E40               	movlw	64
  2084  006774  EC56  F02C         	call	_sputc
  2085  006778  0EC2               	movlw	194
  2086  00677A  EC56  F02C         	call	_sputc
  2087                           
  2088                           ;confws.h: 28: swputc(32);swputc(ip[0]);swputc(ip[1]);swputc(ip[2]);swputc(ip[3]);
  2089  00677E  0E20               	movlw	32
  2090  006780  EC23  F02C         	call	_swputc
  2091  006784  0E5B               	movlw	low _ip
  2092  006786  6EF6               	movwf	tblptrl,c
  2093  006788  0E7E               	movlw	high _ip
  2094  00678A  6EF7               	movwf	tblptrh,c
  2095  00678C  0008               	tblrd		*
  2096  00678E  50F5               	movf	tablat,w,c
  2097  006790  EC23  F02C         	call	_swputc
  2098  006794  0E5C               	movlw	low (_ip+1)
  2099  006796  6EF6               	movwf	tblptrl,c
  2100  006798  0E7E               	movlw	high (_ip+1)
  2101  00679A  6EF7               	movwf	tblptrh,c
  2102  00679C  0008               	tblrd		*
  2103  00679E  50F5               	movf	tablat,w,c
  2104  0067A0  EC23  F02C         	call	_swputc
  2105  0067A4  0E5D               	movlw	low (_ip+2)
  2106  0067A6  6EF6               	movwf	tblptrl,c
  2107  0067A8  0E7E               	movlw	high (_ip+2)
  2108  0067AA  6EF7               	movwf	tblptrh,c
  2109  0067AC  0008               	tblrd		*
  2110  0067AE  50F5               	movf	tablat,w,c
  2111  0067B0  EC23  F02C         	call	_swputc
  2112  0067B4  0E5E               	movlw	low (_ip+3)
  2113  0067B6  6EF6               	movwf	tblptrl,c
  2114  0067B8  0E7E               	movlw	high (_ip+3)
  2115  0067BA  6EF7               	movwf	tblptrh,c
  2116  0067BC  0008               	tblrd		*
  2117  0067BE  50F5               	movf	tablat,w,c
  2118  0067C0  EC23  F02C         	call	_swputc
  2119                           
  2120                           ;confws.h: 29: swputc(ip[4]);swputc(ip[5]);swputc(ip[6]);swputc(ip[7]);swputc(ip[8]);
  2121  0067C4  0E5F               	movlw	low (_ip+4)
  2122  0067C6  6EF6               	movwf	tblptrl,c
  2123  0067C8  0E7E               	movlw	high (_ip+4)
  2124  0067CA  6EF7               	movwf	tblptrh,c
  2125  0067CC  0008               	tblrd		*
  2126  0067CE  50F5               	movf	tablat,w,c
  2127  0067D0  EC23  F02C         	call	_swputc
  2128  0067D4  0E60               	movlw	low (_ip+5)
  2129  0067D6  6EF6               	movwf	tblptrl,c
  2130  0067D8  0E7E               	movlw	high (_ip+5)
  2131  0067DA  6EF7               	movwf	tblptrh,c
  2132  0067DC  0008               	tblrd		*
  2133  0067DE  50F5               	movf	tablat,w,c
  2134  0067E0  EC23  F02C         	call	_swputc
  2135  0067E4  0E61               	movlw	low (_ip+6)
  2136  0067E6  6EF6               	movwf	tblptrl,c
  2137  0067E8  0E7E               	movlw	high (_ip+6)
  2138  0067EA  6EF7               	movwf	tblptrh,c
  2139  0067EC  0008               	tblrd		*
  2140  0067EE  50F5               	movf	tablat,w,c
  2141  0067F0  EC23  F02C         	call	_swputc
  2142  0067F4  0E62               	movlw	low (_ip+7)
  2143  0067F6  6EF6               	movwf	tblptrl,c
  2144  0067F8  0E7E               	movlw	high (_ip+7)
  2145  0067FA  6EF7               	movwf	tblptrh,c
  2146  0067FC  0008               	tblrd		*
  2147  0067FE  50F5               	movf	tablat,w,c
  2148  006800  EC23  F02C         	call	_swputc
  2149  006804  0E63               	movlw	low (_ip+8)
  2150  006806  6EF6               	movwf	tblptrl,c
  2151  006808  0E7E               	movlw	high (_ip+8)
  2152  00680A  6EF7               	movwf	tblptrh,c
  2153  00680C  0008               	tblrd		*
  2154  00680E  50F5               	movf	tablat,w,c
  2155  006810  EC23  F02C         	call	_swputc
  2156                           
  2157                           ;confws.h: 30: swputc(ip[9]);swputc(ip[10]);swputc(ip[11]);swputc(ip[12]);swputc(ip[13])
      +                          ;sputc(26);
  2158  006814  0E64               	movlw	low (_ip+9)
  2159  006816  6EF6               	movwf	tblptrl,c
  2160  006818  0E7E               	movlw	high (_ip+9)
  2161  00681A  6EF7               	movwf	tblptrh,c
  2162  00681C  0008               	tblrd		*
  2163  00681E  50F5               	movf	tablat,w,c
  2164  006820  EC23  F02C         	call	_swputc
  2165  006824  0E65               	movlw	low (_ip+10)
  2166  006826  6EF6               	movwf	tblptrl,c
  2167  006828  0E7E               	movlw	high (_ip+10)
  2168  00682A  6EF7               	movwf	tblptrh,c
  2169  00682C  0008               	tblrd		*
  2170  00682E  50F5               	movf	tablat,w,c
  2171  006830  EC23  F02C         	call	_swputc
  2172  006834  0E66               	movlw	low (_ip+11)
  2173  006836  6EF6               	movwf	tblptrl,c
  2174  006838  0E7E               	movlw	high (_ip+11)
  2175  00683A  6EF7               	movwf	tblptrh,c
  2176  00683C  0008               	tblrd		*
  2177  00683E  50F5               	movf	tablat,w,c
  2178  006840  EC23  F02C         	call	_swputc
  2179  006844  0E67               	movlw	low (_ip+12)
  2180  006846  6EF6               	movwf	tblptrl,c
  2181  006848  0E7E               	movlw	high (_ip+12)
  2182  00684A  6EF7               	movwf	tblptrh,c
  2183  00684C  0008               	tblrd		*
  2184  00684E  50F5               	movf	tablat,w,c
  2185  006850  EC23  F02C         	call	_swputc
  2186  006854  0E68               	movlw	low (_ip+13)
  2187  006856  6EF6               	movwf	tblptrl,c
  2188  006858  0E7E               	movlw	high (_ip+13)
  2189  00685A  6EF7               	movwf	tblptrh,c
  2190  00685C  0008               	tblrd		*
  2191  00685E  50F5               	movf	tablat,w,c
  2192  006860  EC23  F02C         	call	_swputc
  2193  006864  0E1A               	movlw	26
  2194  006866  EC56  F02C         	call	_sputc
  2195                           
  2196                           ;confws.h: 31: tempo_ms(1000); inverte_saida(31759);
  2197  00686A  0E03               	movlw	3
  2198  00686C  6E1B               	movwf	tempo_ms@i+1,c
  2199  00686E  0EE8               	movlw	232
  2200  006870  6E1A               	movwf	tempo_ms@i,c
  2201  006872  ECCD  F02C         	call	_tempo_ms	;wreg free
  2202  006876  0E7C               	movlw	124
  2203  006878  6E15               	movwf	inverte_saida@pino+1,c
  2204  00687A  0E0F               	movlw	15
  2205  00687C  6E14               	movwf	inverte_saida@pino,c
  2206  00687E  ECD8  F02F         	call	_inverte_saida	;wreg free
  2207                           
  2208                           ;confws.h: 32: while (AT1==0){ tempo_ms (2000);
  2209  006882  D098               	goto	l2063
  2210  006884                     l2013:
  2211  006884  0E07               	movlw	7
  2212  006886  6E1B               	movwf	tempo_ms@i+1,c
  2213  006888  0ED0               	movlw	208
  2214  00688A  6E1A               	movwf	tempo_ms@i,c
  2215  00688C  ECCD  F02C         	call	_tempo_ms	;wreg free
  2216                           
  2217                           ;confws.h: 33: sputc(216+i);sputc(202);sputc(232);sputc(64);sputc(210);sputc(64);sputc(1
      +                          94);
  2218  006890  501F               	movf	iniws@i,w,c
  2219  006892  0FD8               	addlw	216
  2220  006894  EC56  F02C         	call	_sputc
  2221  006898  0ECA               	movlw	202
  2222  00689A  EC56  F02C         	call	_sputc
  2223  00689E  0EE8               	movlw	232
  2224  0068A0  EC56  F02C         	call	_sputc
  2225  0068A4  0E40               	movlw	64
  2226  0068A6  EC56  F02C         	call	_sputc
  2227  0068AA  0ED2               	movlw	210
  2228  0068AC  EC56  F02C         	call	_sputc
  2229  0068B0  0E40               	movlw	64
  2230  0068B2  EC56  F02C         	call	_sputc
  2231  0068B6  0EC2               	movlw	194
  2232  0068B8  EC56  F02C         	call	_sputc
  2233                           
  2234                           ;confws.h: 34: swputc(32);swputc(ip[0]);swputc(ip[1]);swputc(ip[2]);swputc(ip[3]);
  2235  0068BC  0E20               	movlw	32
  2236  0068BE  EC23  F02C         	call	_swputc
  2237  0068C2  0E5B               	movlw	low _ip
  2238  0068C4  6EF6               	movwf	tblptrl,c
  2239  0068C6  0E7E               	movlw	high _ip
  2240  0068C8  6EF7               	movwf	tblptrh,c
  2241  0068CA  0008               	tblrd		*
  2242  0068CC  50F5               	movf	tablat,w,c
  2243  0068CE  EC23  F02C         	call	_swputc
  2244  0068D2  0E5C               	movlw	low (_ip+1)
  2245  0068D4  6EF6               	movwf	tblptrl,c
  2246  0068D6  0E7E               	movlw	high (_ip+1)
  2247  0068D8  6EF7               	movwf	tblptrh,c
  2248  0068DA  0008               	tblrd		*
  2249  0068DC  50F5               	movf	tablat,w,c
  2250  0068DE  EC23  F02C         	call	_swputc
  2251  0068E2  0E5D               	movlw	low (_ip+2)
  2252  0068E4  6EF6               	movwf	tblptrl,c
  2253  0068E6  0E7E               	movlw	high (_ip+2)
  2254  0068E8  6EF7               	movwf	tblptrh,c
  2255  0068EA  0008               	tblrd		*
  2256  0068EC  50F5               	movf	tablat,w,c
  2257  0068EE  EC23  F02C         	call	_swputc
  2258  0068F2  0E5E               	movlw	low (_ip+3)
  2259  0068F4  6EF6               	movwf	tblptrl,c
  2260  0068F6  0E7E               	movlw	high (_ip+3)
  2261  0068F8  6EF7               	movwf	tblptrh,c
  2262  0068FA  0008               	tblrd		*
  2263  0068FC  50F5               	movf	tablat,w,c
  2264  0068FE  EC23  F02C         	call	_swputc
  2265                           
  2266                           ;confws.h: 35: swputc(ip[4]);swputc(ip[5]);swputc(ip[6]);swputc(ip[7]);swputc(ip[8]);
  2267  006902  0E5F               	movlw	low (_ip+4)
  2268  006904  6EF6               	movwf	tblptrl,c
  2269  006906  0E7E               	movlw	high (_ip+4)
  2270  006908  6EF7               	movwf	tblptrh,c
  2271  00690A  0008               	tblrd		*
  2272  00690C  50F5               	movf	tablat,w,c
  2273  00690E  EC23  F02C         	call	_swputc
  2274  006912  0E60               	movlw	low (_ip+5)
  2275  006914  6EF6               	movwf	tblptrl,c
  2276  006916  0E7E               	movlw	high (_ip+5)
  2277  006918  6EF7               	movwf	tblptrh,c
  2278  00691A  0008               	tblrd		*
  2279  00691C  50F5               	movf	tablat,w,c
  2280  00691E  EC23  F02C         	call	_swputc
  2281  006922  0E61               	movlw	low (_ip+6)
  2282  006924  6EF6               	movwf	tblptrl,c
  2283  006926  0E7E               	movlw	high (_ip+6)
  2284  006928  6EF7               	movwf	tblptrh,c
  2285  00692A  0008               	tblrd		*
  2286  00692C  50F5               	movf	tablat,w,c
  2287  00692E  EC23  F02C         	call	_swputc
  2288  006932  0E62               	movlw	low (_ip+7)
  2289  006934  6EF6               	movwf	tblptrl,c
  2290  006936  0E7E               	movlw	high (_ip+7)
  2291  006938  6EF7               	movwf	tblptrh,c
  2292  00693A  0008               	tblrd		*
  2293  00693C  50F5               	movf	tablat,w,c
  2294  00693E  EC23  F02C         	call	_swputc
  2295  006942  0E63               	movlw	low (_ip+8)
  2296  006944  6EF6               	movwf	tblptrl,c
  2297  006946  0E7E               	movlw	high (_ip+8)
  2298  006948  6EF7               	movwf	tblptrh,c
  2299  00694A  0008               	tblrd		*
  2300  00694C  50F5               	movf	tablat,w,c
  2301  00694E  EC23  F02C         	call	_swputc
  2302                           
  2303                           ;confws.h: 36: swputc(ip[9]);swputc(ip[10]);swputc(ip[11]);swputc(ip[12]);swputc(ip[13])
      +                          ;sputc(26);
  2304  006952  0E64               	movlw	low (_ip+9)
  2305  006954  6EF6               	movwf	tblptrl,c
  2306  006956  0E7E               	movlw	high (_ip+9)
  2307  006958  6EF7               	movwf	tblptrh,c
  2308  00695A  0008               	tblrd		*
  2309  00695C  50F5               	movf	tablat,w,c
  2310  00695E  EC23  F02C         	call	_swputc
  2311  006962  0E65               	movlw	low (_ip+10)
  2312  006964  6EF6               	movwf	tblptrl,c
  2313  006966  0E7E               	movlw	high (_ip+10)
  2314  006968  6EF7               	movwf	tblptrh,c
  2315  00696A  0008               	tblrd		*
  2316  00696C  50F5               	movf	tablat,w,c
  2317  00696E  EC23  F02C         	call	_swputc
  2318  006972  0E66               	movlw	low (_ip+11)
  2319  006974  6EF6               	movwf	tblptrl,c
  2320  006976  0E7E               	movlw	high (_ip+11)
  2321  006978  6EF7               	movwf	tblptrh,c
  2322  00697A  0008               	tblrd		*
  2323  00697C  50F5               	movf	tablat,w,c
  2324  00697E  EC23  F02C         	call	_swputc
  2325  006982  0E67               	movlw	low (_ip+12)
  2326  006984  6EF6               	movwf	tblptrl,c
  2327  006986  0E7E               	movlw	high (_ip+12)
  2328  006988  6EF7               	movwf	tblptrh,c
  2329  00698A  0008               	tblrd		*
  2330  00698C  50F5               	movf	tablat,w,c
  2331  00698E  EC23  F02C         	call	_swputc
  2332  006992  0E68               	movlw	low (_ip+13)
  2333  006994  6EF6               	movwf	tblptrl,c
  2334  006996  0E7E               	movlw	high (_ip+13)
  2335  006998  6EF7               	movwf	tblptrh,c
  2336  00699A  0008               	tblrd		*
  2337  00699C  50F5               	movf	tablat,w,c
  2338  00699E  EC23  F02C         	call	_swputc
  2339  0069A2  0E1A               	movlw	26
  2340  0069A4  EC56  F02C         	call	_sputc
  2341                           
  2342                           ;confws.h: 37: inverte_saida(31759);}
  2343  0069A8  0E7C               	movlw	124
  2344  0069AA  6E15               	movwf	inverte_saida@pino+1,c
  2345  0069AC  0E0F               	movlw	15
  2346  0069AE  6E14               	movwf	inverte_saida@pino,c
  2347  0069B0  ECD8  F02F         	call	_inverte_saida	;wreg free
  2348  0069B4                     l2063:
  2349  0069B4  5039               	movf	_AT1+1,w,c
  2350  0069B6  1038               	iorwf	_AT1,w,c
  2351  0069B8  B4D8               	btfsc	status,2,c
  2352  0069BA  D764               	goto	l2013
  2353                           
  2354                           ;confws.h: 38: AT1=0;--i;
  2355  0069BC  0E00               	movlw	0
  2356  0069BE  6E39               	movwf	_AT1+1,c
  2357  0069C0  0E00               	movlw	0
  2358  0069C2  6E38               	movwf	_AT1,c
  2359  0069C4  061F               	decf	iniws@i,f,c
  2360                           
  2361                           ;confws.h: 40: sputc(217+i);sputc(202);sputc(232);sputc(64);sputc(210);sputc(64);sputc(2
      +                          06);
  2362  0069C6  501F               	movf	iniws@i,w,c
  2363  0069C8  0FD9               	addlw	217
  2364  0069CA  EC56  F02C         	call	_sputc
  2365  0069CE  0ECA               	movlw	202
  2366  0069D0  EC56  F02C         	call	_sputc
  2367  0069D4  0EE8               	movlw	232
  2368  0069D6  EC56  F02C         	call	_sputc
  2369  0069DA  0E40               	movlw	64
  2370  0069DC  EC56  F02C         	call	_sputc
  2371  0069E0  0ED2               	movlw	210
  2372  0069E2  EC56  F02C         	call	_sputc
  2373  0069E6  0E40               	movlw	64
  2374  0069E8  EC56  F02C         	call	_sputc
  2375  0069EC  0ECE               	movlw	206
  2376  0069EE  EC56  F02C         	call	_sputc
  2377                           
  2378                           ;confws.h: 41: sputc(64);swputc(ip[0]);swputc(ip[1]);swputc(ip[2]);swputc(ip[3]);
  2379  0069F2  0E40               	movlw	64
  2380  0069F4  EC56  F02C         	call	_sputc
  2381  0069F8  0E5B               	movlw	low _ip
  2382  0069FA  6EF6               	movwf	tblptrl,c
  2383  0069FC  0E7E               	movlw	high _ip
  2384  0069FE  6EF7               	movwf	tblptrh,c
  2385  006A00  0008               	tblrd		*
  2386  006A02  50F5               	movf	tablat,w,c
  2387  006A04  EC23  F02C         	call	_swputc
  2388  006A08  0E5C               	movlw	low (_ip+1)
  2389  006A0A  6EF6               	movwf	tblptrl,c
  2390  006A0C  0E7E               	movlw	high (_ip+1)
  2391  006A0E  6EF7               	movwf	tblptrh,c
  2392  006A10  0008               	tblrd		*
  2393  006A12  50F5               	movf	tablat,w,c
  2394  006A14  EC23  F02C         	call	_swputc
  2395  006A18  0E5D               	movlw	low (_ip+2)
  2396  006A1A  6EF6               	movwf	tblptrl,c
  2397  006A1C  0E7E               	movlw	high (_ip+2)
  2398  006A1E  6EF7               	movwf	tblptrh,c
  2399  006A20  0008               	tblrd		*
  2400  006A22  50F5               	movf	tablat,w,c
  2401  006A24  EC23  F02C         	call	_swputc
  2402  006A28  0E5E               	movlw	low (_ip+3)
  2403  006A2A  6EF6               	movwf	tblptrl,c
  2404  006A2C  0E7E               	movlw	high (_ip+3)
  2405  006A2E  6EF7               	movwf	tblptrh,c
  2406  006A30  0008               	tblrd		*
  2407  006A32  50F5               	movf	tablat,w,c
  2408  006A34  EC23  F02C         	call	_swputc
  2409                           
  2410                           ;confws.h: 42: swputc(ip[4]);swputc(ip[5]);swputc(ip[6]);swputc(ip[7]);swputc(ip[8]);
  2411  006A38  0E5F               	movlw	low (_ip+4)
  2412  006A3A  6EF6               	movwf	tblptrl,c
  2413  006A3C  0E7E               	movlw	high (_ip+4)
  2414  006A3E  6EF7               	movwf	tblptrh,c
  2415  006A40  0008               	tblrd		*
  2416  006A42  50F5               	movf	tablat,w,c
  2417  006A44  EC23  F02C         	call	_swputc
  2418  006A48  0E60               	movlw	low (_ip+5)
  2419  006A4A  6EF6               	movwf	tblptrl,c
  2420  006A4C  0E7E               	movlw	high (_ip+5)
  2421  006A4E  6EF7               	movwf	tblptrh,c
  2422  006A50  0008               	tblrd		*
  2423  006A52  50F5               	movf	tablat,w,c
  2424  006A54  EC23  F02C         	call	_swputc
  2425  006A58  0E61               	movlw	low (_ip+6)
  2426  006A5A  6EF6               	movwf	tblptrl,c
  2427  006A5C  0E7E               	movlw	high (_ip+6)
  2428  006A5E  6EF7               	movwf	tblptrh,c
  2429  006A60  0008               	tblrd		*
  2430  006A62  50F5               	movf	tablat,w,c
  2431  006A64  EC23  F02C         	call	_swputc
  2432  006A68  0E62               	movlw	low (_ip+7)
  2433  006A6A  6EF6               	movwf	tblptrl,c
  2434  006A6C  0E7E               	movlw	high (_ip+7)
  2435  006A6E  6EF7               	movwf	tblptrh,c
  2436  006A70  0008               	tblrd		*
  2437  006A72  50F5               	movf	tablat,w,c
  2438  006A74  EC23  F02C         	call	_swputc
  2439  006A78  0E63               	movlw	low (_ip+8)
  2440  006A7A  6EF6               	movwf	tblptrl,c
  2441  006A7C  0E7E               	movlw	high (_ip+8)
  2442  006A7E  6EF7               	movwf	tblptrh,c
  2443  006A80  0008               	tblrd		*
  2444  006A82  50F5               	movf	tablat,w,c
  2445  006A84  EC23  F02C         	call	_swputc
  2446                           
  2447                           ;confws.h: 43: if(ip[8]==46){swputc(ip[9]);} else if(ip[9]==46){swputc(ip[9]);swputc(ip[
      +                          10]);}
  2448  006A88  0E63               	movlw	low (_ip+8)
  2449  006A8A  6EF6               	movwf	tblptrl,c
  2450  006A8C  0E7E               	movlw	high (_ip+8)
  2451  006A8E  6EF7               	movwf	tblptrh,c
  2452  006A90  0008               	tblrd		*
  2453  006A92  50F5               	movf	tablat,w,c
  2454  006A94  0A2E               	xorlw	46
  2455  006A96  A4D8               	btfss	status,2,c
  2456  006A98  D009               	goto	l2107
  2457  006A9A  0E64               	movlw	low (_ip+9)
  2458  006A9C  6EF6               	movwf	tblptrl,c
  2459  006A9E  0E7E               	movlw	high (_ip+9)
  2460  006AA0  6EF7               	movwf	tblptrh,c
  2461  006AA2  0008               	tblrd		*
  2462  006AA4  50F5               	movf	tablat,w,c
  2463  006AA6  EC23  F02C         	call	_swputc
  2464  006AAA  D060               	goto	l2121
  2465  006AAC                     l2107:
  2466  006AAC  0E64               	movlw	low (_ip+9)
  2467  006AAE  6EF6               	movwf	tblptrl,c
  2468  006AB0  0E7E               	movlw	high (_ip+9)
  2469  006AB2  6EF7               	movwf	tblptrh,c
  2470  006AB4  0008               	tblrd		*
  2471  006AB6  50F5               	movf	tablat,w,c
  2472  006AB8  0A2E               	xorlw	46
  2473  006ABA  A4D8               	btfss	status,2,c
  2474  006ABC  D011               	goto	l2111
  2475  006ABE  0E64               	movlw	low (_ip+9)
  2476  006AC0  6EF6               	movwf	tblptrl,c
  2477  006AC2  0E7E               	movlw	high (_ip+9)
  2478  006AC4  6EF7               	movwf	tblptrh,c
  2479  006AC6  0008               	tblrd		*
  2480  006AC8  50F5               	movf	tablat,w,c
  2481  006ACA  EC23  F02C         	call	_swputc
  2482  006ACE  0E65               	movlw	low (_ip+10)
  2483  006AD0  6EF6               	movwf	tblptrl,c
  2484  006AD2  0E7E               	movlw	high (_ip+10)
  2485  006AD4  6EF7               	movwf	tblptrh,c
  2486  006AD6  0008               	tblrd		*
  2487  006AD8  50F5               	movf	tablat,w,c
  2488  006ADA  EC23  F02C         	call	_swputc
  2489  006ADE  D046               	goto	l2121
  2490  006AE0                     l2111:
  2491                           
  2492                           ;confws.h: 44: else if(ip[10]==46){swputc(ip[9]);swputc(ip[10]);swputc(ip[11]);}
  2493  006AE0  0E65               	movlw	low (_ip+10)
  2494  006AE2  6EF6               	movwf	tblptrl,c
  2495  006AE4  0E7E               	movlw	high (_ip+10)
  2496  006AE6  6EF7               	movwf	tblptrh,c
  2497  006AE8  0008               	tblrd		*
  2498  006AEA  50F5               	movf	tablat,w,c
  2499  006AEC  0A2E               	xorlw	46
  2500  006AEE  A4D8               	btfss	status,2,c
  2501  006AF0  D019               	goto	l2115
  2502  006AF2  0E64               	movlw	low (_ip+9)
  2503  006AF4  6EF6               	movwf	tblptrl,c
  2504  006AF6  0E7E               	movlw	high (_ip+9)
  2505  006AF8  6EF7               	movwf	tblptrh,c
  2506  006AFA  0008               	tblrd		*
  2507  006AFC  50F5               	movf	tablat,w,c
  2508  006AFE  EC23  F02C         	call	_swputc
  2509  006B02  0E65               	movlw	low (_ip+10)
  2510  006B04  6EF6               	movwf	tblptrl,c
  2511  006B06  0E7E               	movlw	high (_ip+10)
  2512  006B08  6EF7               	movwf	tblptrh,c
  2513  006B0A  0008               	tblrd		*
  2514  006B0C  50F5               	movf	tablat,w,c
  2515  006B0E  EC23  F02C         	call	_swputc
  2516  006B12  0E66               	movlw	low (_ip+11)
  2517  006B14  6EF6               	movwf	tblptrl,c
  2518  006B16  0E7E               	movlw	high (_ip+11)
  2519  006B18  6EF7               	movwf	tblptrh,c
  2520  006B1A  0008               	tblrd		*
  2521  006B1C  50F5               	movf	tablat,w,c
  2522  006B1E  EC23  F02C         	call	_swputc
  2523  006B22  D024               	goto	l2121
  2524  006B24                     l2115:
  2525                           
  2526                           ;confws.h: 45: else if(ip[11]==46) {swputc(ip[9]);swputc(ip[10]);swputc(ip[11]);swputc(4
      +                          9);}
  2527  006B24  0E66               	movlw	low (_ip+11)
  2528  006B26  6EF6               	movwf	tblptrl,c
  2529  006B28  0E7E               	movlw	high (_ip+11)
  2530  006B2A  6EF7               	movwf	tblptrh,c
  2531  006B2C  0008               	tblrd		*
  2532  006B2E  50F5               	movf	tablat,w,c
  2533  006B30  0A2E               	xorlw	46
  2534  006B32  A4D8               	btfss	status,2,c
  2535  006B34  D01B               	goto	l2121
  2536  006B36  0E64               	movlw	low (_ip+9)
  2537  006B38  6EF6               	movwf	tblptrl,c
  2538  006B3A  0E7E               	movlw	high (_ip+9)
  2539  006B3C  6EF7               	movwf	tblptrh,c
  2540  006B3E  0008               	tblrd		*
  2541  006B40  50F5               	movf	tablat,w,c
  2542  006B42  EC23  F02C         	call	_swputc
  2543  006B46  0E65               	movlw	low (_ip+10)
  2544  006B48  6EF6               	movwf	tblptrl,c
  2545  006B4A  0E7E               	movlw	high (_ip+10)
  2546  006B4C  6EF7               	movwf	tblptrh,c
  2547  006B4E  0008               	tblrd		*
  2548  006B50  50F5               	movf	tablat,w,c
  2549  006B52  EC23  F02C         	call	_swputc
  2550  006B56  0E66               	movlw	low (_ip+11)
  2551  006B58  6EF6               	movwf	tblptrl,c
  2552  006B5A  0E7E               	movlw	high (_ip+11)
  2553  006B5C  6EF7               	movwf	tblptrh,c
  2554  006B5E  0008               	tblrd		*
  2555  006B60  50F5               	movf	tablat,w,c
  2556  006B62  EC23  F02C         	call	_swputc
  2557  006B66  0E31               	movlw	49
  2558  006B68  EC23  F02C         	call	_swputc
  2559  006B6C                     l2121:
  2560                           
  2561                           ;confws.h: 46: sputc(26);tempo_ms(1000); inverte_saida(31759);
  2562  006B6C  0E1A               	movlw	26
  2563  006B6E  EC56  F02C         	call	_sputc
  2564  006B72  0E03               	movlw	3
  2565  006B74  6E1B               	movwf	tempo_ms@i+1,c
  2566  006B76  0EE8               	movlw	232
  2567  006B78  6E1A               	movwf	tempo_ms@i,c
  2568  006B7A  ECCD  F02C         	call	_tempo_ms	;wreg free
  2569  006B7E  0E7C               	movlw	124
  2570  006B80  6E15               	movwf	inverte_saida@pino+1,c
  2571  006B82  0E0F               	movlw	15
  2572  006B84  6E14               	movwf	inverte_saida@pino,c
  2573  006B86  ECD8  F02F         	call	_inverte_saida	;wreg free
  2574                           
  2575                           ;confws.h: 47: while (AT1==0){ tempo_ms (2000);
  2576  006B8A  D0E2               	goto	l2185
  2577  006B8C                     l2127:
  2578  006B8C  0E07               	movlw	7
  2579  006B8E  6E1B               	movwf	tempo_ms@i+1,c
  2580  006B90  0ED0               	movlw	208
  2581  006B92  6E1A               	movwf	tempo_ms@i,c
  2582  006B94  ECCD  F02C         	call	_tempo_ms	;wreg free
  2583                           
  2584                           ;confws.h: 48: sputc(217+i);sputc(202);sputc(232);sputc(64);sputc(210);sputc(64);sputc(2
      +                          06);
  2585  006B98  501F               	movf	iniws@i,w,c
  2586  006B9A  0FD9               	addlw	217
  2587  006B9C  EC56  F02C         	call	_sputc
  2588  006BA0  0ECA               	movlw	202
  2589  006BA2  EC56  F02C         	call	_sputc
  2590  006BA6  0EE8               	movlw	232
  2591  006BA8  EC56  F02C         	call	_sputc
  2592  006BAC  0E40               	movlw	64
  2593  006BAE  EC56  F02C         	call	_sputc
  2594  006BB2  0ED2               	movlw	210
  2595  006BB4  EC56  F02C         	call	_sputc
  2596  006BB8  0E40               	movlw	64
  2597  006BBA  EC56  F02C         	call	_sputc
  2598  006BBE  0ECE               	movlw	206
  2599  006BC0  EC56  F02C         	call	_sputc
  2600                           
  2601                           ;confws.h: 49: sputc(64);swputc(ip[0]);swputc(ip[1]);swputc(ip[2]);swputc(ip[3]);
  2602  006BC4  0E40               	movlw	64
  2603  006BC6  EC56  F02C         	call	_sputc
  2604  006BCA  0E5B               	movlw	low _ip
  2605  006BCC  6EF6               	movwf	tblptrl,c
  2606  006BCE  0E7E               	movlw	high _ip
  2607  006BD0  6EF7               	movwf	tblptrh,c
  2608  006BD2  0008               	tblrd		*
  2609  006BD4  50F5               	movf	tablat,w,c
  2610  006BD6  EC23  F02C         	call	_swputc
  2611  006BDA  0E5C               	movlw	low (_ip+1)
  2612  006BDC  6EF6               	movwf	tblptrl,c
  2613  006BDE  0E7E               	movlw	high (_ip+1)
  2614  006BE0  6EF7               	movwf	tblptrh,c
  2615  006BE2  0008               	tblrd		*
  2616  006BE4  50F5               	movf	tablat,w,c
  2617  006BE6  EC23  F02C         	call	_swputc
  2618  006BEA  0E5D               	movlw	low (_ip+2)
  2619  006BEC  6EF6               	movwf	tblptrl,c
  2620  006BEE  0E7E               	movlw	high (_ip+2)
  2621  006BF0  6EF7               	movwf	tblptrh,c
  2622  006BF2  0008               	tblrd		*
  2623  006BF4  50F5               	movf	tablat,w,c
  2624  006BF6  EC23  F02C         	call	_swputc
  2625  006BFA  0E5E               	movlw	low (_ip+3)
  2626  006BFC  6EF6               	movwf	tblptrl,c
  2627  006BFE  0E7E               	movlw	high (_ip+3)
  2628  006C00  6EF7               	movwf	tblptrh,c
  2629  006C02  0008               	tblrd		*
  2630  006C04  50F5               	movf	tablat,w,c
  2631  006C06  EC23  F02C         	call	_swputc
  2632                           
  2633                           ;confws.h: 50: swputc(ip[4]);swputc(ip[5]);swputc(ip[6]);swputc(ip[7]);swputc(ip[8]);
  2634  006C0A  0E5F               	movlw	low (_ip+4)
  2635  006C0C  6EF6               	movwf	tblptrl,c
  2636  006C0E  0E7E               	movlw	high (_ip+4)
  2637  006C10  6EF7               	movwf	tblptrh,c
  2638  006C12  0008               	tblrd		*
  2639  006C14  50F5               	movf	tablat,w,c
  2640  006C16  EC23  F02C         	call	_swputc
  2641  006C1A  0E60               	movlw	low (_ip+5)
  2642  006C1C  6EF6               	movwf	tblptrl,c
  2643  006C1E  0E7E               	movlw	high (_ip+5)
  2644  006C20  6EF7               	movwf	tblptrh,c
  2645  006C22  0008               	tblrd		*
  2646  006C24  50F5               	movf	tablat,w,c
  2647  006C26  EC23  F02C         	call	_swputc
  2648  006C2A  0E61               	movlw	low (_ip+6)
  2649  006C2C  6EF6               	movwf	tblptrl,c
  2650  006C2E  0E7E               	movlw	high (_ip+6)
  2651  006C30  6EF7               	movwf	tblptrh,c
  2652  006C32  0008               	tblrd		*
  2653  006C34  50F5               	movf	tablat,w,c
  2654  006C36  EC23  F02C         	call	_swputc
  2655  006C3A  0E62               	movlw	low (_ip+7)
  2656  006C3C  6EF6               	movwf	tblptrl,c
  2657  006C3E  0E7E               	movlw	high (_ip+7)
  2658  006C40  6EF7               	movwf	tblptrh,c
  2659  006C42  0008               	tblrd		*
  2660  006C44  50F5               	movf	tablat,w,c
  2661  006C46  EC23  F02C         	call	_swputc
  2662  006C4A  0E63               	movlw	low (_ip+8)
  2663  006C4C  6EF6               	movwf	tblptrl,c
  2664  006C4E  0E7E               	movlw	high (_ip+8)
  2665  006C50  6EF7               	movwf	tblptrh,c
  2666  006C52  0008               	tblrd		*
  2667  006C54  50F5               	movf	tablat,w,c
  2668  006C56  EC23  F02C         	call	_swputc
  2669                           
  2670                           ;confws.h: 51: if(ip[8]==46){swputc(ip[9]);} else if(ip[9]==46){swputc(ip[9]);swputc(ip[
      +                          10]);}
  2671  006C5A  0E63               	movlw	low (_ip+8)
  2672  006C5C  6EF6               	movwf	tblptrl,c
  2673  006C5E  0E7E               	movlw	high (_ip+8)
  2674  006C60  6EF7               	movwf	tblptrh,c
  2675  006C62  0008               	tblrd		*
  2676  006C64  50F5               	movf	tablat,w,c
  2677  006C66  0A2E               	xorlw	46
  2678  006C68  A4D8               	btfss	status,2,c
  2679  006C6A  D009               	goto	l2167
  2680  006C6C  0E64               	movlw	low (_ip+9)
  2681  006C6E  6EF6               	movwf	tblptrl,c
  2682  006C70  0E7E               	movlw	high (_ip+9)
  2683  006C72  6EF7               	movwf	tblptrh,c
  2684  006C74  0008               	tblrd		*
  2685  006C76  50F5               	movf	tablat,w,c
  2686  006C78  EC23  F02C         	call	_swputc
  2687  006C7C  D060               	goto	l2181
  2688  006C7E                     l2167:
  2689  006C7E  0E64               	movlw	low (_ip+9)
  2690  006C80  6EF6               	movwf	tblptrl,c
  2691  006C82  0E7E               	movlw	high (_ip+9)
  2692  006C84  6EF7               	movwf	tblptrh,c
  2693  006C86  0008               	tblrd		*
  2694  006C88  50F5               	movf	tablat,w,c
  2695  006C8A  0A2E               	xorlw	46
  2696  006C8C  A4D8               	btfss	status,2,c
  2697  006C8E  D011               	goto	l2171
  2698  006C90  0E64               	movlw	low (_ip+9)
  2699  006C92  6EF6               	movwf	tblptrl,c
  2700  006C94  0E7E               	movlw	high (_ip+9)
  2701  006C96  6EF7               	movwf	tblptrh,c
  2702  006C98  0008               	tblrd		*
  2703  006C9A  50F5               	movf	tablat,w,c
  2704  006C9C  EC23  F02C         	call	_swputc
  2705  006CA0  0E65               	movlw	low (_ip+10)
  2706  006CA2  6EF6               	movwf	tblptrl,c
  2707  006CA4  0E7E               	movlw	high (_ip+10)
  2708  006CA6  6EF7               	movwf	tblptrh,c
  2709  006CA8  0008               	tblrd		*
  2710  006CAA  50F5               	movf	tablat,w,c
  2711  006CAC  EC23  F02C         	call	_swputc
  2712  006CB0  D046               	goto	l2181
  2713  006CB2                     l2171:
  2714                           
  2715                           ;confws.h: 52: else if(ip[10]==46){swputc(ip[9]);swputc(ip[10]);swputc(ip[11]);}
  2716  006CB2  0E65               	movlw	low (_ip+10)
  2717  006CB4  6EF6               	movwf	tblptrl,c
  2718  006CB6  0E7E               	movlw	high (_ip+10)
  2719  006CB8  6EF7               	movwf	tblptrh,c
  2720  006CBA  0008               	tblrd		*
  2721  006CBC  50F5               	movf	tablat,w,c
  2722  006CBE  0A2E               	xorlw	46
  2723  006CC0  A4D8               	btfss	status,2,c
  2724  006CC2  D019               	goto	l2175
  2725  006CC4  0E64               	movlw	low (_ip+9)
  2726  006CC6  6EF6               	movwf	tblptrl,c
  2727  006CC8  0E7E               	movlw	high (_ip+9)
  2728  006CCA  6EF7               	movwf	tblptrh,c
  2729  006CCC  0008               	tblrd		*
  2730  006CCE  50F5               	movf	tablat,w,c
  2731  006CD0  EC23  F02C         	call	_swputc
  2732  006CD4  0E65               	movlw	low (_ip+10)
  2733  006CD6  6EF6               	movwf	tblptrl,c
  2734  006CD8  0E7E               	movlw	high (_ip+10)
  2735  006CDA  6EF7               	movwf	tblptrh,c
  2736  006CDC  0008               	tblrd		*
  2737  006CDE  50F5               	movf	tablat,w,c
  2738  006CE0  EC23  F02C         	call	_swputc
  2739  006CE4  0E66               	movlw	low (_ip+11)
  2740  006CE6  6EF6               	movwf	tblptrl,c
  2741  006CE8  0E7E               	movlw	high (_ip+11)
  2742  006CEA  6EF7               	movwf	tblptrh,c
  2743  006CEC  0008               	tblrd		*
  2744  006CEE  50F5               	movf	tablat,w,c
  2745  006CF0  EC23  F02C         	call	_swputc
  2746  006CF4  D024               	goto	l2181
  2747  006CF6                     l2175:
  2748                           
  2749                           ;confws.h: 53: else if(ip[11]==46) {swputc(ip[9]);swputc(ip[10]);swputc(ip[11]);swputc(4
      +                          9);}
  2750  006CF6  0E66               	movlw	low (_ip+11)
  2751  006CF8  6EF6               	movwf	tblptrl,c
  2752  006CFA  0E7E               	movlw	high (_ip+11)
  2753  006CFC  6EF7               	movwf	tblptrh,c
  2754  006CFE  0008               	tblrd		*
  2755  006D00  50F5               	movf	tablat,w,c
  2756  006D02  0A2E               	xorlw	46
  2757  006D04  A4D8               	btfss	status,2,c
  2758  006D06  D01B               	goto	l2181
  2759  006D08  0E64               	movlw	low (_ip+9)
  2760  006D0A  6EF6               	movwf	tblptrl,c
  2761  006D0C  0E7E               	movlw	high (_ip+9)
  2762  006D0E  6EF7               	movwf	tblptrh,c
  2763  006D10  0008               	tblrd		*
  2764  006D12  50F5               	movf	tablat,w,c
  2765  006D14  EC23  F02C         	call	_swputc
  2766  006D18  0E65               	movlw	low (_ip+10)
  2767  006D1A  6EF6               	movwf	tblptrl,c
  2768  006D1C  0E7E               	movlw	high (_ip+10)
  2769  006D1E  6EF7               	movwf	tblptrh,c
  2770  006D20  0008               	tblrd		*
  2771  006D22  50F5               	movf	tablat,w,c
  2772  006D24  EC23  F02C         	call	_swputc
  2773  006D28  0E66               	movlw	low (_ip+11)
  2774  006D2A  6EF6               	movwf	tblptrl,c
  2775  006D2C  0E7E               	movlw	high (_ip+11)
  2776  006D2E  6EF7               	movwf	tblptrh,c
  2777  006D30  0008               	tblrd		*
  2778  006D32  50F5               	movf	tablat,w,c
  2779  006D34  EC23  F02C         	call	_swputc
  2780  006D38  0E31               	movlw	49
  2781  006D3A  EC23  F02C         	call	_swputc
  2782  006D3E                     l2181:
  2783                           
  2784                           ;confws.h: 54: sputc(26);inverte_saida(31759);}
  2785  006D3E  0E1A               	movlw	26
  2786  006D40  EC56  F02C         	call	_sputc
  2787  006D44  0E7C               	movlw	124
  2788  006D46  6E15               	movwf	inverte_saida@pino+1,c
  2789  006D48  0E0F               	movlw	15
  2790  006D4A  6E14               	movwf	inverte_saida@pino,c
  2791  006D4C  ECD8  F02F         	call	_inverte_saida	;wreg free
  2792  006D50                     l2185:
  2793  006D50  5039               	movf	_AT1+1,w,c
  2794  006D52  1038               	iorwf	_AT1,w,c
  2795  006D54  B4D8               	btfsc	status,2,c
  2796  006D56  D71A               	goto	l2127
  2797                           
  2798                           ;confws.h: 55: AT1=0;--i;
  2799  006D58  0E00               	movlw	0
  2800  006D5A  6E39               	movwf	_AT1+1,c
  2801  006D5C  0E00               	movlw	0
  2802  006D5E  6E38               	movwf	_AT1,c
  2803  006D60  061F               	decf	iniws@i,f,c
  2804                           
  2805                           ;confws.h: 57: sputc(218+i);sputc(202);sputc(232);sputc(64);sputc(210);sputc(64);
  2806  006D62  501F               	movf	iniws@i,w,c
  2807  006D64  0FDA               	addlw	218
  2808  006D66  EC56  F02C         	call	_sputc
  2809  006D6A  0ECA               	movlw	202
  2810  006D6C  EC56  F02C         	call	_sputc
  2811  006D70  0EE8               	movlw	232
  2812  006D72  EC56  F02C         	call	_sputc
  2813  006D76  0E40               	movlw	64
  2814  006D78  EC56  F02C         	call	_sputc
  2815  006D7C  0ED2               	movlw	210
  2816  006D7E  EC56  F02C         	call	_sputc
  2817  006D82  0E40               	movlw	64
  2818  006D84  EC56  F02C         	call	_sputc
  2819                           
  2820                           ;confws.h: 58: sputc(200);sputc(64);sputc(96);sputc(26);
  2821  006D88  0EC8               	movlw	200
  2822  006D8A  EC56  F02C         	call	_sputc
  2823  006D8E  0E40               	movlw	64
  2824  006D90  EC56  F02C         	call	_sputc
  2825  006D94  0E60               	movlw	96
  2826  006D96  EC56  F02C         	call	_sputc
  2827  006D9A  0E1A               	movlw	26
  2828  006D9C  EC56  F02C         	call	_sputc
  2829                           
  2830                           ;confws.h: 59: tempo_ms(500);inverte_saida(31759);
  2831  006DA0  0E01               	movlw	1
  2832  006DA2  6E1B               	movwf	tempo_ms@i+1,c
  2833  006DA4  0EF4               	movlw	244
  2834  006DA6  6E1A               	movwf	tempo_ms@i,c
  2835  006DA8  ECCD  F02C         	call	_tempo_ms	;wreg free
  2836  006DAC  0E7C               	movlw	124
  2837  006DAE  6E15               	movwf	inverte_saida@pino+1,c
  2838  006DB0  0E0F               	movlw	15
  2839  006DB2  6E14               	movwf	inverte_saida@pino,c
  2840  006DB4  ECD8  F02F         	call	_inverte_saida	;wreg free
  2841                           
  2842                           ;confws.h: 60: while (AT1==0){ tempo_ms (1000);
  2843  006DB8  D02B               	goto	l2239
  2844  006DBA                     l2215:
  2845  006DBA  0E03               	movlw	3
  2846  006DBC  6E1B               	movwf	tempo_ms@i+1,c
  2847  006DBE  0EE8               	movlw	232
  2848  006DC0  6E1A               	movwf	tempo_ms@i,c
  2849  006DC2  ECCD  F02C         	call	_tempo_ms	;wreg free
  2850                           
  2851                           ;confws.h: 61: sputc(218+i);sputc(202);sputc(232);sputc(64);sputc(210);sputc(64);
  2852  006DC6  501F               	movf	iniws@i,w,c
  2853  006DC8  0FDA               	addlw	218
  2854  006DCA  EC56  F02C         	call	_sputc
  2855  006DCE  0ECA               	movlw	202
  2856  006DD0  EC56  F02C         	call	_sputc
  2857  006DD4  0EE8               	movlw	232
  2858  006DD6  EC56  F02C         	call	_sputc
  2859  006DDA  0E40               	movlw	64
  2860  006DDC  EC56  F02C         	call	_sputc
  2861  006DE0  0ED2               	movlw	210
  2862  006DE2  EC56  F02C         	call	_sputc
  2863  006DE6  0E40               	movlw	64
  2864  006DE8  EC56  F02C         	call	_sputc
  2865                           
  2866                           ;confws.h: 62: sputc(200);sputc(64);sputc(96);sputc(26);
  2867  006DEC  0EC8               	movlw	200
  2868  006DEE  EC56  F02C         	call	_sputc
  2869  006DF2  0E40               	movlw	64
  2870  006DF4  EC56  F02C         	call	_sputc
  2871  006DF8  0E60               	movlw	96
  2872  006DFA  EC56  F02C         	call	_sputc
  2873  006DFE  0E1A               	movlw	26
  2874  006E00  EC56  F02C         	call	_sputc
  2875                           
  2876                           ;confws.h: 63: inverte_saida(31759);}
  2877  006E04  0E7C               	movlw	124
  2878  006E06  6E15               	movwf	inverte_saida@pino+1,c
  2879  006E08  0E0F               	movlw	15
  2880  006E0A  6E14               	movwf	inverte_saida@pino,c
  2881  006E0C  ECD8  F02F         	call	_inverte_saida	;wreg free
  2882  006E10                     l2239:
  2883  006E10  5039               	movf	_AT1+1,w,c
  2884  006E12  1038               	iorwf	_AT1,w,c
  2885  006E14  B4D8               	btfsc	status,2,c
  2886  006E16  D7D1               	goto	l2215
  2887                           
  2888                           ;confws.h: 64: AT1=0;--i;
  2889  006E18  0E00               	movlw	0
  2890  006E1A  6E39               	movwf	_AT1+1,c
  2891  006E1C  0E00               	movlw	0
  2892  006E1E  6E38               	movwf	_AT1,c
  2893  006E20  061F               	decf	iniws@i,f,c
  2894                           
  2895                           ;confws.h: 66: sputc(219+i);sputc(202);sputc(232);sputc(64);sputc(234);sputc(64);
  2896  006E22  501F               	movf	iniws@i,w,c
  2897  006E24  0FDB               	addlw	219
  2898  006E26  EC56  F02C         	call	_sputc
  2899  006E2A  0ECA               	movlw	202
  2900  006E2C  EC56  F02C         	call	_sputc
  2901  006E30  0EE8               	movlw	232
  2902  006E32  EC56  F02C         	call	_sputc
  2903  006E36  0E40               	movlw	64
  2904  006E38  EC56  F02C         	call	_sputc
  2905  006E3C  0EEA               	movlw	234
  2906  006E3E  EC56  F02C         	call	_sputc
  2907  006E42  0E40               	movlw	64
  2908  006E44  EC56  F02C         	call	_sputc
  2909                           
  2910                           ;confws.h: 67: sputc(196);sputc(64);sputc(98);sputc(114);sputc(100);sputc(96);
  2911  006E48  0EC4               	movlw	196
  2912  006E4A  EC56  F02C         	call	_sputc
  2913  006E4E  0E40               	movlw	64
  2914  006E50  EC56  F02C         	call	_sputc
  2915  006E54  0E62               	movlw	98
  2916  006E56  EC56  F02C         	call	_sputc
  2917  006E5A  0E72               	movlw	114
  2918  006E5C  EC56  F02C         	call	_sputc
  2919  006E60  0E64               	movlw	100
  2920  006E62  EC56  F02C         	call	_sputc
  2921  006E66  0E60               	movlw	96
  2922  006E68  EC56  F02C         	call	_sputc
  2923                           
  2924                           ;confws.h: 68: sputc(96);sputc(26); inverte_saida(31759);
  2925  006E6C  0E60               	movlw	96
  2926  006E6E  EC56  F02C         	call	_sputc
  2927  006E72  0E1A               	movlw	26
  2928  006E74  EC56  F02C         	call	_sputc
  2929  006E78  0E7C               	movlw	124
  2930  006E7A  6E15               	movwf	inverte_saida@pino+1,c
  2931  006E7C  0E0F               	movlw	15
  2932  006E7E  6E14               	movwf	inverte_saida@pino,c
  2933  006E80  ECD8  F02F         	call	_inverte_saida	;wreg free
  2934                           
  2935                           ;confws.h: 69: tempo_ms(1000); inverte_saida(31759);
  2936  006E84  0E03               	movlw	3
  2937  006E86  6E1B               	movwf	tempo_ms@i+1,c
  2938  006E88  0EE8               	movlw	232
  2939  006E8A  6E1A               	movwf	tempo_ms@i,c
  2940  006E8C  ECCD  F02C         	call	_tempo_ms	;wreg free
  2941  006E90  0E7C               	movlw	124
  2942  006E92  6E15               	movwf	inverte_saida@pino+1,c
  2943  006E94  0E0F               	movlw	15
  2944  006E96  6E14               	movwf	inverte_saida@pino,c
  2945  006E98  ECD8  F02F         	call	_inverte_saida	;wreg free
  2946                           
  2947                           ;confws.h: 70: sputc(219+i);sputc(202);sputc(232);sputc(64);sputc(210);sputc(224);
  2948  006E9C  501F               	movf	iniws@i,w,c
  2949  006E9E  0FDB               	addlw	219
  2950  006EA0  EC56  F02C         	call	_sputc
  2951  006EA4  0ECA               	movlw	202
  2952  006EA6  EC56  F02C         	call	_sputc
  2953  006EAA  0EE8               	movlw	232
  2954  006EAC  EC56  F02C         	call	_sputc
  2955  006EB0  0E40               	movlw	64
  2956  006EB2  EC56  F02C         	call	_sputc
  2957  006EB6  0ED2               	movlw	210
  2958  006EB8  EC56  F02C         	call	_sputc
  2959  006EBC  0EE0               	movlw	224
  2960  006EBE  EC56  F02C         	call	_sputc
  2961                           
  2962                           ;confws.h: 71: sputc(64);sputc(224);sputc(228);sputc(222);sputc(232);sputc(222);
  2963  006EC2  0E40               	movlw	64
  2964  006EC4  EC56  F02C         	call	_sputc
  2965  006EC8  0EE0               	movlw	224
  2966  006ECA  EC56  F02C         	call	_sputc
  2967  006ECE  0EE4               	movlw	228
  2968  006ED0  EC56  F02C         	call	_sputc
  2969  006ED4  0EDE               	movlw	222
  2970  006ED6  EC56  F02C         	call	_sputc
  2971  006EDA  0EE8               	movlw	232
  2972  006EDC  EC56  F02C         	call	_sputc
  2973  006EE0  0EDE               	movlw	222
  2974  006EE2  EC56  F02C         	call	_sputc
  2975                           
  2976                           ;confws.h: 72: sputc(64);sputc(98);sputc(112);sputc(26);
  2977  006EE6  0E40               	movlw	64
  2978  006EE8  EC56  F02C         	call	_sputc
  2979  006EEC  0E62               	movlw	98
  2980  006EEE  EC56  F02C         	call	_sputc
  2981  006EF2  0E70               	movlw	112
  2982  006EF4  EC56  F02C         	call	_sputc
  2983  006EF8  0E1A               	movlw	26
  2984  006EFA  EC56  F02C         	call	_sputc
  2985                           
  2986                           ;confws.h: 73: tempo_ms(1000); inverte_saida(31759);
  2987  006EFE  0E03               	movlw	3
  2988  006F00  6E1B               	movwf	tempo_ms@i+1,c
  2989  006F02  0EE8               	movlw	232
  2990  006F04  6E1A               	movwf	tempo_ms@i,c
  2991  006F06  ECCD  F02C         	call	_tempo_ms	;wreg free
  2992  006F0A  0E7C               	movlw	124
  2993  006F0C  6E15               	movwf	inverte_saida@pino+1,c
  2994  006F0E  0E0F               	movlw	15
  2995  006F10  6E14               	movwf	inverte_saida@pino,c
  2996  006F12  ECD8  F02F         	call	_inverte_saida	;wreg free
  2997                           
  2998                           ;confws.h: 74: sputc(219+i);sputc(202);sputc(232);sputc(64);sputc(222);sputc(64);
  2999  006F16  501F               	movf	iniws@i,w,c
  3000  006F18  0FDB               	addlw	219
  3001  006F1A  EC56  F02C         	call	_sputc
  3002  006F1E  0ECA               	movlw	202
  3003  006F20  EC56  F02C         	call	_sputc
  3004  006F24  0EE8               	movlw	232
  3005  006F26  EC56  F02C         	call	_sputc
  3006  006F2A  0E40               	movlw	64
  3007  006F2C  EC56  F02C         	call	_sputc
  3008  006F30  0EDE               	movlw	222
  3009  006F32  EC56  F02C         	call	_sputc
  3010  006F36  0E40               	movlw	64
  3011  006F38  EC56  F02C         	call	_sputc
  3012                           
  3013                           ;confws.h: 75: sputc(200);sputc(64);sputc(166);sputc(194);sputc(220);sputc(170);
  3014  006F3C  0EC8               	movlw	200
  3015  006F3E  EC56  F02C         	call	_sputc
  3016  006F42  0E40               	movlw	64
  3017  006F44  EC56  F02C         	call	_sputc
  3018  006F48  0EA6               	movlw	166
  3019  006F4A  EC56  F02C         	call	_sputc
  3020  006F4E  0EC2               	movlw	194
  3021  006F50  EC56  F02C         	call	_sputc
  3022  006F54  0EDC               	movlw	220
  3023  006F56  EC56  F02C         	call	_sputc
  3024  006F5A  0EAA               	movlw	170
  3025  006F5C  EC56  F02C         	call	_sputc
  3026                           
  3027                           ;confws.h: 76: sputc(166);sputc(132);sputc(90);sputc(204);sputc(216);sputc(242);sputc(26
      +                          );
  3028  006F60  0EA6               	movlw	166
  3029  006F62  EC56  F02C         	call	_sputc
  3030  006F66  0E84               	movlw	132
  3031  006F68  EC56  F02C         	call	_sputc
  3032  006F6C  0E5A               	movlw	90
  3033  006F6E  EC56  F02C         	call	_sputc
  3034  006F72  0ECC               	movlw	204
  3035  006F74  EC56  F02C         	call	_sputc
  3036  006F78  0ED8               	movlw	216
  3037  006F7A  EC56  F02C         	call	_sputc
  3038  006F7E  0EF2               	movlw	242
  3039  006F80  EC56  F02C         	call	_sputc
  3040  006F84  0E1A               	movlw	26
  3041  006F86  EC56  F02C         	call	_sputc
  3042                           
  3043                           ;confws.h: 77: tempo_ms(500); inverte_saida(31759);
  3044  006F8A  0E01               	movlw	1
  3045  006F8C  6E1B               	movwf	tempo_ms@i+1,c
  3046  006F8E  0EF4               	movlw	244
  3047  006F90  6E1A               	movwf	tempo_ms@i,c
  3048  006F92  ECCD  F02C         	call	_tempo_ms	;wreg free
  3049  006F96  0E7C               	movlw	124
  3050  006F98  6E15               	movwf	inverte_saida@pino+1,c
  3051  006F9A  0E0F               	movlw	15
  3052  006F9C  6E14               	movwf	inverte_saida@pino,c
  3053  006F9E  ECD8  F02F         	call	_inverte_saida	;wreg free
  3054                           
  3055                           ;confws.h: 78: sputc(219+i);sputc(194);sputc(236);sputc(202);sputc(26);
  3056  006FA2  501F               	movf	iniws@i,w,c
  3057  006FA4  0FDB               	addlw	219
  3058  006FA6  EC56  F02C         	call	_sputc
  3059  006FAA  0EC2               	movlw	194
  3060  006FAC  EC56  F02C         	call	_sputc
  3061  006FB0  0EEC               	movlw	236
  3062  006FB2  EC56  F02C         	call	_sputc
  3063  006FB6  0ECA               	movlw	202
  3064  006FB8  EC56  F02C         	call	_sputc
  3065  006FBC  0E1A               	movlw	26
  3066  006FBE  EC56  F02C         	call	_sputc
  3067                           
  3068                           ;confws.h: 79: tempo_ms (1000); inverte_saida(31759);
  3069  006FC2  0E03               	movlw	3
  3070  006FC4  6E1B               	movwf	tempo_ms@i+1,c
  3071  006FC6  0EE8               	movlw	232
  3072  006FC8  6E1A               	movwf	tempo_ms@i,c
  3073  006FCA  ECCD  F02C         	call	_tempo_ms	;wreg free
  3074  006FCE  0E7C               	movlw	124
  3075  006FD0  6E15               	movwf	inverte_saida@pino+1,c
  3076  006FD2  0E0F               	movlw	15
  3077  006FD4  6E14               	movwf	inverte_saida@pino,c
  3078  006FD6  ECD8  F02F         	call	_inverte_saida	;wreg free
  3079                           
  3080                           ;confws.h: 80: while (AT1==0){ tempo_ms (2000);
  3081  006FDA  D022               	goto	l2385
  3082  006FDC                     l2371:
  3083  006FDC  0E07               	movlw	7
  3084  006FDE  6E1B               	movwf	tempo_ms@i+1,c
  3085  006FE0  0ED0               	movlw	208
  3086  006FE2  6E1A               	movwf	tempo_ms@i,c
  3087  006FE4  ECCD  F02C         	call	_tempo_ms	;wreg free
  3088                           
  3089                           ;confws.h: 81: sputc(219+i);sputc(194);sputc(236);sputc(202);sputc(26);
  3090  006FE8  501F               	movf	iniws@i,w,c
  3091  006FEA  0FDB               	addlw	219
  3092  006FEC  EC56  F02C         	call	_sputc
  3093  006FF0  0EC2               	movlw	194
  3094  006FF2  EC56  F02C         	call	_sputc
  3095  006FF6  0EEC               	movlw	236
  3096  006FF8  EC56  F02C         	call	_sputc
  3097  006FFC  0ECA               	movlw	202
  3098  006FFE  EC56  F02C         	call	_sputc
  3099  007002  0E1A               	movlw	26
  3100  007004  EC56  F02C         	call	_sputc
  3101                           
  3102                           ;confws.h: 82: tempo_ms(1000);
  3103  007008  0E03               	movlw	3
  3104  00700A  6E1B               	movwf	tempo_ms@i+1,c
  3105  00700C  0EE8               	movlw	232
  3106  00700E  6E1A               	movwf	tempo_ms@i,c
  3107  007010  ECCD  F02C         	call	_tempo_ms	;wreg free
  3108                           
  3109                           ;confws.h: 83: inverte_saida(31759);}
  3110  007014  0E7C               	movlw	124
  3111  007016  6E15               	movwf	inverte_saida@pino+1,c
  3112  007018  0E0F               	movlw	15
  3113  00701A  6E14               	movwf	inverte_saida@pino,c
  3114  00701C  ECD8  F02F         	call	_inverte_saida	;wreg free
  3115  007020                     l2385:
  3116  007020  5039               	movf	_AT1+1,w,c
  3117  007022  1038               	iorwf	_AT1,w,c
  3118  007024  B4D8               	btfsc	status,2,c
  3119  007026  D7DA               	goto	l2371
  3120                           
  3121                           ;confws.h: 84: AT1=0;--i;
  3122  007028  0E00               	movlw	0
  3123  00702A  6E39               	movwf	_AT1+1,c
  3124  00702C  0E00               	movlw	0
  3125  00702E  6E38               	movwf	_AT1,c
  3126  007030  061F               	decf	iniws@i,f,c
  3127                           
  3128                           ;confws.h: 86: sputc(218+i);sputc(202);sputc(196);sputc(222);sputc(222);sputc(232);
  3129  007032  501F               	movf	iniws@i,w,c
  3130  007034  0FDA               	addlw	218
  3131  007036  EC56  F02C         	call	_sputc
  3132  00703A  0ECA               	movlw	202
  3133  00703C  EC56  F02C         	call	_sputc
  3134  007040  0EC4               	movlw	196
  3135  007042  EC56  F02C         	call	_sputc
  3136  007046  0EDE               	movlw	222
  3137  007048  EC56  F02C         	call	_sputc
  3138  00704C  0EDE               	movlw	222
  3139  00704E  EC56  F02C         	call	_sputc
  3140  007052  0EE8               	movlw	232
  3141  007054  EC56  F02C         	call	_sputc
  3142                           
  3143                           ;confws.h: 87: sputc(26);
  3144  007058  0E1A               	movlw	26
  3145  00705A  EC56  F02C         	call	_sputc
  3146                           
  3147                           ;confws.h: 88: tempo_ms (1000); inverte_saida(31759);
  3148  00705E  0E03               	movlw	3
  3149  007060  6E1B               	movwf	tempo_ms@i+1,c
  3150  007062  0EE8               	movlw	232
  3151  007064  6E1A               	movwf	tempo_ms@i,c
  3152  007066  ECCD  F02C         	call	_tempo_ms	;wreg free
  3153  00706A  0E7C               	movlw	124
  3154  00706C  6E15               	movwf	inverte_saida@pino+1,c
  3155  00706E  0E0F               	movlw	15
  3156  007070  6E14               	movwf	inverte_saida@pino,c
  3157  007072  ECD8  F02F         	call	_inverte_saida	;wreg free
  3158                           
  3159                           ;confws.h: 89: while (AT1==0){ tempo_ms (4000);
  3160  007076  D00C               	goto	l2413
  3161  007078                     l2409:
  3162  007078  0E0F               	movlw	15
  3163  00707A  6E1B               	movwf	tempo_ms@i+1,c
  3164  00707C  0EA0               	movlw	160
  3165  00707E  6E1A               	movwf	tempo_ms@i,c
  3166  007080  ECCD  F02C         	call	_tempo_ms	;wreg free
  3167                           
  3168                           ;confws.h: 90: inverte_saida(31759);}
  3169  007084  0E7C               	movlw	124
  3170  007086  6E15               	movwf	inverte_saida@pino+1,c
  3171  007088  0E0F               	movlw	15
  3172  00708A  6E14               	movwf	inverte_saida@pino,c
  3173  00708C  ECD8  F02F         	call	_inverte_saida	;wreg free
  3174  007090                     l2413:
  3175  007090  5039               	movf	_AT1+1,w,c
  3176  007092  1038               	iorwf	_AT1,w,c
  3177  007094  B4D8               	btfsc	status,2,c
  3178  007096  D7F0               	goto	l2409
  3179                           
  3180                           ;confws.h: 91: sputc(218+i);sputc(202);sputc(196);sputc(222);sputc(222);sputc(232);
  3181  007098  501F               	movf	iniws@i,w,c
  3182  00709A  0FDA               	addlw	218
  3183  00709C  EC56  F02C         	call	_sputc
  3184  0070A0  0ECA               	movlw	202
  3185  0070A2  EC56  F02C         	call	_sputc
  3186  0070A6  0EC4               	movlw	196
  3187  0070A8  EC56  F02C         	call	_sputc
  3188  0070AC  0EDE               	movlw	222
  3189  0070AE  EC56  F02C         	call	_sputc
  3190  0070B2  0EDE               	movlw	222
  3191  0070B4  EC56  F02C         	call	_sputc
  3192  0070B8  0EE8               	movlw	232
  3193  0070BA  EC56  F02C         	call	_sputc
  3194                           
  3195                           ;confws.h: 92: sputc(26);
  3196  0070BE  0E1A               	movlw	26
  3197  0070C0  EC56  F02C         	call	_sputc
  3198                           
  3199                           ;confws.h: 93: AT1=0;--i;
  3200  0070C4  0E00               	movlw	0
  3201  0070C6  6E39               	movwf	_AT1+1,c
  3202  0070C8  0E00               	movlw	0
  3203  0070CA  6E38               	movwf	_AT1,c
  3204  0070CC  061F               	decf	iniws@i,f,c
  3205                           
  3206                           ;confws.h: 95: SPBRGH =0x02; SPBRG = 0x70; tempo_ms (100);
  3207  0070CE  0E02               	movlw	2
  3208  0070D0  6EB0               	movwf	4016,c	;volatile
  3209  0070D2  0E70               	movlw	112
  3210  0070D4  6EAF               	movwf	4015,c	;volatile
  3211  0070D6  0E00               	movlw	0
  3212  0070D8  6E1B               	movwf	tempo_ms@i+1,c
  3213  0070DA  0E64               	movlw	100
  3214  0070DC  6E1A               	movwf	tempo_ms@i,c
  3215  0070DE  ECCD  F02C         	call	_tempo_ms	;wreg free
  3216                           
  3217                           ;confws.h: 96: sputc(63+i);sputc(72);sputc(72);inverte_saida(31759);tempo_ms (500);
  3218  0070E2  501F               	movf	iniws@i,w,c
  3219  0070E4  0F3F               	addlw	63
  3220  0070E6  EC56  F02C         	call	_sputc
  3221  0070EA  0E48               	movlw	72
  3222  0070EC  EC56  F02C         	call	_sputc
  3223  0070F0  0E48               	movlw	72
  3224  0070F2  EC56  F02C         	call	_sputc
  3225  0070F6  0E7C               	movlw	124
  3226  0070F8  6E15               	movwf	inverte_saida@pino+1,c
  3227  0070FA  0E0F               	movlw	15
  3228  0070FC  6E14               	movwf	inverte_saida@pino,c
  3229  0070FE  ECD8  F02F         	call	_inverte_saida	;wreg free
  3230  007102  0E01               	movlw	1
  3231  007104  6E1B               	movwf	tempo_ms@i+1,c
  3232  007106  0EF4               	movlw	244
  3233  007108  6E1A               	movwf	tempo_ms@i,c
  3234  00710A  ECCD  F02C         	call	_tempo_ms	;wreg free
  3235                           
  3236                           ;confws.h: 97: inverte_saida(31759);
  3237  00710E  0E7C               	movlw	124
  3238  007110  6E15               	movwf	inverte_saida@pino+1,c
  3239  007112  0E0F               	movlw	15
  3240  007114  6E14               	movwf	inverte_saida@pino,c
  3241  007116  ECD8  F02F         	call	_inverte_saida	;wreg free
  3242                           
  3243                           ;confws.h: 98: while (AT1==0){ tempo_ms (4000);sputc(63+i);sputc(72);sputc(72);
  3244  00711A  D01C               	goto	l2449
  3245  00711C                     l2439:
  3246  00711C  0E0F               	movlw	15
  3247  00711E  6E1B               	movwf	tempo_ms@i+1,c
  3248  007120  0EA0               	movlw	160
  3249  007122  6E1A               	movwf	tempo_ms@i,c
  3250  007124  ECCD  F02C         	call	_tempo_ms	;wreg free
  3251  007128  501F               	movf	iniws@i,w,c
  3252  00712A  0F3F               	addlw	63
  3253  00712C  EC56  F02C         	call	_sputc
  3254  007130  0E48               	movlw	72
  3255  007132  EC56  F02C         	call	_sputc
  3256  007136  0E48               	movlw	72
  3257  007138  EC56  F02C         	call	_sputc
  3258                           
  3259                           ;confws.h: 99: inverte_saida(31759); tempo_ms (500);}
  3260  00713C  0E7C               	movlw	124
  3261  00713E  6E15               	movwf	inverte_saida@pino+1,c
  3262  007140  0E0F               	movlw	15
  3263  007142  6E14               	movwf	inverte_saida@pino,c
  3264  007144  ECD8  F02F         	call	_inverte_saida	;wreg free
  3265  007148  0E01               	movlw	1
  3266  00714A  6E1B               	movwf	tempo_ms@i+1,c
  3267  00714C  0EF4               	movlw	244
  3268  00714E  6E1A               	movwf	tempo_ms@i,c
  3269  007150  ECCD  F02C         	call	_tempo_ms	;wreg free
  3270  007154                     l2449:
  3271  007154  5039               	movf	_AT1+1,w,c
  3272  007156  1038               	iorwf	_AT1,w,c
  3273  007158  B4D8               	btfsc	status,2,c
  3274  00715A  D7E0               	goto	l2439
  3275                           
  3276                           ;confws.h: 100: AT1=0;--i;
  3277  00715C  0E00               	movlw	0
  3278  00715E  6E39               	movwf	_AT1+1,c
  3279  007160  0E00               	movlw	0
  3280  007162  6E38               	movwf	_AT1,c
  3281  007164  061F               	decf	iniws@i,f,c
  3282                           
  3283                           ;confws.h: 102: sputc(222+i);sputc(202);sputc(232);sputc(64);sputc(238);sputc(64);
  3284  007166  501F               	movf	iniws@i,w,c
  3285  007168  0FDE               	addlw	222
  3286  00716A  EC56  F02C         	call	_sputc
  3287  00716E  0ECA               	movlw	202
  3288  007170  EC56  F02C         	call	_sputc
  3289  007174  0EE8               	movlw	232
  3290  007176  EC56  F02C         	call	_sputc
  3291  00717A  0E40               	movlw	64
  3292  00717C  EC56  F02C         	call	_sputc
  3293  007180  0EEE               	movlw	238
  3294  007182  EC56  F02C         	call	_sputc
  3295  007186  0E40               	movlw	64
  3296  007188  EC56  F02C         	call	_sputc
  3297                           
  3298                           ;confws.h: 103: sputc(230);sputc(64);swputc(rede[0]);swputc(rede[1]);swputc(rede[2]);
  3299  00718C  0EE6               	movlw	230
  3300  00718E  EC56  F02C         	call	_sputc
  3301  007192  0E40               	movlw	64
  3302  007194  EC56  F02C         	call	_sputc
  3303  007198  0E69               	movlw	low _rede
  3304  00719A  6EF6               	movwf	tblptrl,c
  3305  00719C  0E7E               	movlw	high _rede
  3306  00719E  6EF7               	movwf	tblptrh,c
  3307  0071A0  0008               	tblrd		*
  3308  0071A2  50F5               	movf	tablat,w,c
  3309  0071A4  EC23  F02C         	call	_swputc
  3310  0071A8  0E6A               	movlw	low (_rede+1)
  3311  0071AA  6EF6               	movwf	tblptrl,c
  3312  0071AC  0E7E               	movlw	high (_rede+1)
  3313  0071AE  6EF7               	movwf	tblptrh,c
  3314  0071B0  0008               	tblrd		*
  3315  0071B2  50F5               	movf	tablat,w,c
  3316  0071B4  EC23  F02C         	call	_swputc
  3317  0071B8  0E6B               	movlw	low (_rede+2)
  3318  0071BA  6EF6               	movwf	tblptrl,c
  3319  0071BC  0E7E               	movlw	high (_rede+2)
  3320  0071BE  6EF7               	movwf	tblptrh,c
  3321  0071C0  0008               	tblrd		*
  3322  0071C2  50F5               	movf	tablat,w,c
  3323  0071C4  EC23  F02C         	call	_swputc
  3324                           
  3325                           ;confws.h: 104: swputc(rede[3]);swputc(rede[4]);swputc(rede[5]);swputc(rede[6]);
  3326  0071C8  0E6C               	movlw	low (_rede+3)
  3327  0071CA  6EF6               	movwf	tblptrl,c
  3328  0071CC  0E7E               	movlw	high (_rede+3)
  3329  0071CE  6EF7               	movwf	tblptrh,c
  3330  0071D0  0008               	tblrd		*
  3331  0071D2  50F5               	movf	tablat,w,c
  3332  0071D4  EC23  F02C         	call	_swputc
  3333  0071D8  0E6D               	movlw	low (_rede+4)
  3334  0071DA  6EF6               	movwf	tblptrl,c
  3335  0071DC  0E7E               	movlw	high (_rede+4)
  3336  0071DE  6EF7               	movwf	tblptrh,c
  3337  0071E0  0008               	tblrd		*
  3338  0071E2  50F5               	movf	tablat,w,c
  3339  0071E4  EC23  F02C         	call	_swputc
  3340  0071E8  0E6E               	movlw	low (_rede+5)
  3341  0071EA  6EF6               	movwf	tblptrl,c
  3342  0071EC  0E7E               	movlw	high (_rede+5)
  3343  0071EE  6EF7               	movwf	tblptrh,c
  3344  0071F0  0008               	tblrd		*
  3345  0071F2  50F5               	movf	tablat,w,c
  3346  0071F4  EC23  F02C         	call	_swputc
  3347  0071F8  0E6F               	movlw	low (_rede+6)
  3348  0071FA  6EF6               	movwf	tblptrl,c
  3349  0071FC  0E7E               	movlw	high (_rede+6)
  3350  0071FE  6EF7               	movwf	tblptrh,c
  3351  007200  0008               	tblrd		*
  3352  007202  50F5               	movf	tablat,w,c
  3353  007204  EC23  F02C         	call	_swputc
  3354                           
  3355                           ;confws.h: 105: swputc(rede[7]);swputc(rede[8]);swputc(rede[9]);swputc(rede[10]);
  3356  007208  0E70               	movlw	low (_rede+7)
  3357  00720A  6EF6               	movwf	tblptrl,c
  3358  00720C  0E7E               	movlw	high (_rede+7)
  3359  00720E  6EF7               	movwf	tblptrh,c
  3360  007210  0008               	tblrd		*
  3361  007212  50F5               	movf	tablat,w,c
  3362  007214  EC23  F02C         	call	_swputc
  3363  007218  0E71               	movlw	low (_rede+8)
  3364  00721A  6EF6               	movwf	tblptrl,c
  3365  00721C  0E7E               	movlw	high (_rede+8)
  3366  00721E  6EF7               	movwf	tblptrh,c
  3367  007220  0008               	tblrd		*
  3368  007222  50F5               	movf	tablat,w,c
  3369  007224  EC23  F02C         	call	_swputc
  3370  007228  0E72               	movlw	low (_rede+9)
  3371  00722A  6EF6               	movwf	tblptrl,c
  3372  00722C  0E7E               	movlw	high (_rede+9)
  3373  00722E  6EF7               	movwf	tblptrh,c
  3374  007230  0008               	tblrd		*
  3375  007232  50F5               	movf	tablat,w,c
  3376  007234  EC23  F02C         	call	_swputc
  3377  007238  0E73               	movlw	low (_rede+10)
  3378  00723A  6EF6               	movwf	tblptrl,c
  3379  00723C  0E7E               	movlw	high (_rede+10)
  3380  00723E  6EF7               	movwf	tblptrh,c
  3381  007240  0008               	tblrd		*
  3382  007242  50F5               	movf	tablat,w,c
  3383  007244  EC23  F02C         	call	_swputc
  3384                           
  3385                           ;confws.h: 106: swputc(rede[11]);swputc(rede[12]);swputc(rede[13]);swputc(rede[14]);
  3386  007248  0E74               	movlw	low (_rede+11)
  3387  00724A  6EF6               	movwf	tblptrl,c
  3388  00724C  0E7E               	movlw	high (_rede+11)
  3389  00724E  6EF7               	movwf	tblptrh,c
  3390  007250  0008               	tblrd		*
  3391  007252  50F5               	movf	tablat,w,c
  3392  007254  EC23  F02C         	call	_swputc
  3393  007258  0E75               	movlw	low (_rede+12)
  3394  00725A  6EF6               	movwf	tblptrl,c
  3395  00725C  0E7E               	movlw	high (_rede+12)
  3396  00725E  6EF7               	movwf	tblptrh,c
  3397  007260  0008               	tblrd		*
  3398  007262  50F5               	movf	tablat,w,c
  3399  007264  EC23  F02C         	call	_swputc
  3400  007268  0E76               	movlw	low (_rede+13)
  3401  00726A  6EF6               	movwf	tblptrl,c
  3402  00726C  0E7E               	movlw	high (_rede+13)
  3403  00726E  6EF7               	movwf	tblptrh,c
  3404  007270  0008               	tblrd		*
  3405  007272  50F5               	movf	tablat,w,c
  3406  007274  EC23  F02C         	call	_swputc
  3407  007278  0E77               	movlw	low (_rede+14)
  3408  00727A  6EF6               	movwf	tblptrl,c
  3409  00727C  0E7E               	movlw	high (_rede+14)
  3410  00727E  6EF7               	movwf	tblptrh,c
  3411  007280  0008               	tblrd		*
  3412  007282  50F5               	movf	tablat,w,c
  3413  007284  EC23  F02C         	call	_swputc
  3414                           
  3415                           ;confws.h: 107: swputc(rede[15]);swputc(rede[16]);sputc(26);tempo_ms (500); inverte_said
      +                          a(31759);
  3416  007288  0E78               	movlw	low (_rede+15)
  3417  00728A  6EF6               	movwf	tblptrl,c
  3418  00728C  0E7E               	movlw	high (_rede+15)
  3419  00728E  6EF7               	movwf	tblptrh,c
  3420  007290  0008               	tblrd		*
  3421  007292  50F5               	movf	tablat,w,c
  3422  007294  EC23  F02C         	call	_swputc
  3423  007298  0E79               	movlw	low (_rede+16)
  3424  00729A  6EF6               	movwf	tblptrl,c
  3425  00729C  0E7E               	movlw	high (_rede+16)
  3426  00729E  6EF7               	movwf	tblptrh,c
  3427  0072A0  0008               	tblrd		*
  3428  0072A2  50F5               	movf	tablat,w,c
  3429  0072A4  EC23  F02C         	call	_swputc
  3430  0072A8  0E1A               	movlw	26
  3431  0072AA  EC56  F02C         	call	_sputc
  3432  0072AE  0E01               	movlw	1
  3433  0072B0  6E1B               	movwf	tempo_ms@i+1,c
  3434  0072B2  0EF4               	movlw	244
  3435  0072B4  6E1A               	movwf	tempo_ms@i,c
  3436  0072B6  ECCD  F02C         	call	_tempo_ms	;wreg free
  3437  0072BA  0E7C               	movlw	124
  3438  0072BC  6E15               	movwf	inverte_saida@pino+1,c
  3439  0072BE  0E0F               	movlw	15
  3440  0072C0  6E14               	movwf	inverte_saida@pino,c
  3441  0072C2  ECD8  F02F         	call	_inverte_saida	;wreg free
  3442                           
  3443                           ;confws.h: 108: while (AT1==0){ tempo_ms (2000);
  3444  0072C6  D0B6               	goto	l2569
  3445  0072C8                     l2511:
  3446  0072C8  0E07               	movlw	7
  3447  0072CA  6E1B               	movwf	tempo_ms@i+1,c
  3448  0072CC  0ED0               	movlw	208
  3449  0072CE  6E1A               	movwf	tempo_ms@i,c
  3450  0072D0  ECCD  F02C         	call	_tempo_ms	;wreg free
  3451                           
  3452                           ;confws.h: 109: sputc(222+i);sputc(202);sputc(232);sputc(64);sputc(238);sputc(64);
  3453  0072D4  501F               	movf	iniws@i,w,c
  3454  0072D6  0FDE               	addlw	222
  3455  0072D8  EC56  F02C         	call	_sputc
  3456  0072DC  0ECA               	movlw	202
  3457  0072DE  EC56  F02C         	call	_sputc
  3458  0072E2  0EE8               	movlw	232
  3459  0072E4  EC56  F02C         	call	_sputc
  3460  0072E8  0E40               	movlw	64
  3461  0072EA  EC56  F02C         	call	_sputc
  3462  0072EE  0EEE               	movlw	238
  3463  0072F0  EC56  F02C         	call	_sputc
  3464  0072F4  0E40               	movlw	64
  3465  0072F6  EC56  F02C         	call	_sputc
  3466                           
  3467                           ;confws.h: 110: sputc(230);sputc(64);swputc(rede[0]);swputc(rede[1]);swputc(rede[2]);
  3468  0072FA  0EE6               	movlw	230
  3469  0072FC  EC56  F02C         	call	_sputc
  3470  007300  0E40               	movlw	64
  3471  007302  EC56  F02C         	call	_sputc
  3472  007306  0E69               	movlw	low _rede
  3473  007308  6EF6               	movwf	tblptrl,c
  3474  00730A  0E7E               	movlw	high _rede
  3475  00730C  6EF7               	movwf	tblptrh,c
  3476  00730E  0008               	tblrd		*
  3477  007310  50F5               	movf	tablat,w,c
  3478  007312  EC23  F02C         	call	_swputc
  3479  007316  0E6A               	movlw	low (_rede+1)
  3480  007318  6EF6               	movwf	tblptrl,c
  3481  00731A  0E7E               	movlw	high (_rede+1)
  3482  00731C  6EF7               	movwf	tblptrh,c
  3483  00731E  0008               	tblrd		*
  3484  007320  50F5               	movf	tablat,w,c
  3485  007322  EC23  F02C         	call	_swputc
  3486  007326  0E6B               	movlw	low (_rede+2)
  3487  007328  6EF6               	movwf	tblptrl,c
  3488  00732A  0E7E               	movlw	high (_rede+2)
  3489  00732C  6EF7               	movwf	tblptrh,c
  3490  00732E  0008               	tblrd		*
  3491  007330  50F5               	movf	tablat,w,c
  3492  007332  EC23  F02C         	call	_swputc
  3493                           
  3494                           ;confws.h: 111: swputc(rede[3]);swputc(rede[4]);swputc(rede[5]);swputc(rede[6]);
  3495  007336  0E6C               	movlw	low (_rede+3)
  3496  007338  6EF6               	movwf	tblptrl,c
  3497  00733A  0E7E               	movlw	high (_rede+3)
  3498  00733C  6EF7               	movwf	tblptrh,c
  3499  00733E  0008               	tblrd		*
  3500  007340  50F5               	movf	tablat,w,c
  3501  007342  EC23  F02C         	call	_swputc
  3502  007346  0E6D               	movlw	low (_rede+4)
  3503  007348  6EF6               	movwf	tblptrl,c
  3504  00734A  0E7E               	movlw	high (_rede+4)
  3505  00734C  6EF7               	movwf	tblptrh,c
  3506  00734E  0008               	tblrd		*
  3507  007350  50F5               	movf	tablat,w,c
  3508  007352  EC23  F02C         	call	_swputc
  3509  007356  0E6E               	movlw	low (_rede+5)
  3510  007358  6EF6               	movwf	tblptrl,c
  3511  00735A  0E7E               	movlw	high (_rede+5)
  3512  00735C  6EF7               	movwf	tblptrh,c
  3513  00735E  0008               	tblrd		*
  3514  007360  50F5               	movf	tablat,w,c
  3515  007362  EC23  F02C         	call	_swputc
  3516  007366  0E6F               	movlw	low (_rede+6)
  3517  007368  6EF6               	movwf	tblptrl,c
  3518  00736A  0E7E               	movlw	high (_rede+6)
  3519  00736C  6EF7               	movwf	tblptrh,c
  3520  00736E  0008               	tblrd		*
  3521  007370  50F5               	movf	tablat,w,c
  3522  007372  EC23  F02C         	call	_swputc
  3523                           
  3524                           ;confws.h: 112: swputc(rede[7]);swputc(rede[8]);swputc(rede[9]);swputc(rede[10]);
  3525  007376  0E70               	movlw	low (_rede+7)
  3526  007378  6EF6               	movwf	tblptrl,c
  3527  00737A  0E7E               	movlw	high (_rede+7)
  3528  00737C  6EF7               	movwf	tblptrh,c
  3529  00737E  0008               	tblrd		*
  3530  007380  50F5               	movf	tablat,w,c
  3531  007382  EC23  F02C         	call	_swputc
  3532  007386  0E71               	movlw	low (_rede+8)
  3533  007388  6EF6               	movwf	tblptrl,c
  3534  00738A  0E7E               	movlw	high (_rede+8)
  3535  00738C  6EF7               	movwf	tblptrh,c
  3536  00738E  0008               	tblrd		*
  3537  007390  50F5               	movf	tablat,w,c
  3538  007392  EC23  F02C         	call	_swputc
  3539  007396  0E72               	movlw	low (_rede+9)
  3540  007398  6EF6               	movwf	tblptrl,c
  3541  00739A  0E7E               	movlw	high (_rede+9)
  3542  00739C  6EF7               	movwf	tblptrh,c
  3543  00739E  0008               	tblrd		*
  3544  0073A0  50F5               	movf	tablat,w,c
  3545  0073A2  EC23  F02C         	call	_swputc
  3546  0073A6  0E73               	movlw	low (_rede+10)
  3547  0073A8  6EF6               	movwf	tblptrl,c
  3548  0073AA  0E7E               	movlw	high (_rede+10)
  3549  0073AC  6EF7               	movwf	tblptrh,c
  3550  0073AE  0008               	tblrd		*
  3551  0073B0  50F5               	movf	tablat,w,c
  3552  0073B2  EC23  F02C         	call	_swputc
  3553                           
  3554                           ;confws.h: 113: swputc(rede[11]);swputc(rede[12]);swputc(rede[13]);swputc(rede[14]);
  3555  0073B6  0E74               	movlw	low (_rede+11)
  3556  0073B8  6EF6               	movwf	tblptrl,c
  3557  0073BA  0E7E               	movlw	high (_rede+11)
  3558  0073BC  6EF7               	movwf	tblptrh,c
  3559  0073BE  0008               	tblrd		*
  3560  0073C0  50F5               	movf	tablat,w,c
  3561  0073C2  EC23  F02C         	call	_swputc
  3562  0073C6  0E75               	movlw	low (_rede+12)
  3563  0073C8  6EF6               	movwf	tblptrl,c
  3564  0073CA  0E7E               	movlw	high (_rede+12)
  3565  0073CC  6EF7               	movwf	tblptrh,c
  3566  0073CE  0008               	tblrd		*
  3567  0073D0  50F5               	movf	tablat,w,c
  3568  0073D2  EC23  F02C         	call	_swputc
  3569  0073D6  0E76               	movlw	low (_rede+13)
  3570  0073D8  6EF6               	movwf	tblptrl,c
  3571  0073DA  0E7E               	movlw	high (_rede+13)
  3572  0073DC  6EF7               	movwf	tblptrh,c
  3573  0073DE  0008               	tblrd		*
  3574  0073E0  50F5               	movf	tablat,w,c
  3575  0073E2  EC23  F02C         	call	_swputc
  3576  0073E6  0E77               	movlw	low (_rede+14)
  3577  0073E8  6EF6               	movwf	tblptrl,c
  3578  0073EA  0E7E               	movlw	high (_rede+14)
  3579  0073EC  6EF7               	movwf	tblptrh,c
  3580  0073EE  0008               	tblrd		*
  3581  0073F0  50F5               	movf	tablat,w,c
  3582  0073F2  EC23  F02C         	call	_swputc
  3583                           
  3584                           ;confws.h: 114: swputc(rede[15]);swputc(rede[16]);sputc(26);tempo_ms (500); inverte_said
      +                          a(31759);
  3585  0073F6  0E78               	movlw	low (_rede+15)
  3586  0073F8  6EF6               	movwf	tblptrl,c
  3587  0073FA  0E7E               	movlw	high (_rede+15)
  3588  0073FC  6EF7               	movwf	tblptrh,c
  3589  0073FE  0008               	tblrd		*
  3590  007400  50F5               	movf	tablat,w,c
  3591  007402  EC23  F02C         	call	_swputc
  3592  007406  0E79               	movlw	low (_rede+16)
  3593  007408  6EF6               	movwf	tblptrl,c
  3594  00740A  0E7E               	movlw	high (_rede+16)
  3595  00740C  6EF7               	movwf	tblptrh,c
  3596  00740E  0008               	tblrd		*
  3597  007410  50F5               	movf	tablat,w,c
  3598  007412  EC23  F02C         	call	_swputc
  3599  007416  0E1A               	movlw	26
  3600  007418  EC56  F02C         	call	_sputc
  3601  00741C  0E01               	movlw	1
  3602  00741E  6E1B               	movwf	tempo_ms@i+1,c
  3603  007420  0EF4               	movlw	244
  3604  007422  6E1A               	movwf	tempo_ms@i,c
  3605  007424  ECCD  F02C         	call	_tempo_ms	;wreg free
  3606  007428  0E7C               	movlw	124
  3607  00742A  6E15               	movwf	inverte_saida@pino+1,c
  3608  00742C  0E0F               	movlw	15
  3609  00742E  6E14               	movwf	inverte_saida@pino,c
  3610  007430  ECD8  F02F         	call	_inverte_saida	;wreg free
  3611  007434                     l2569:
  3612  007434  5039               	movf	_AT1+1,w,c
  3613  007436  1038               	iorwf	_AT1,w,c
  3614  007438  B4D8               	btfsc	status,2,c
  3615  00743A  D746               	goto	l2511
  3616                           
  3617                           ;confws.h: 115: }
  3618                           ;confws.h: 116: AT1=0;--i;
  3619  00743C  0E00               	movlw	0
  3620  00743E  6E39               	movwf	_AT1+1,c
  3621  007440  0E00               	movlw	0
  3622  007442  6E38               	movwf	_AT1,c
  3623  007444  061F               	decf	iniws@i,f,c
  3624                           
  3625                           ;confws.h: 118: sputc(223+i);sputc(202);sputc(232);sputc(64);sputc(238);sputc(64);
  3626  007446  501F               	movf	iniws@i,w,c
  3627  007448  0FDF               	addlw	223
  3628  00744A  EC56  F02C         	call	_sputc
  3629  00744E  0ECA               	movlw	202
  3630  007450  EC56  F02C         	call	_sputc
  3631  007454  0EE8               	movlw	232
  3632  007456  EC56  F02C         	call	_sputc
  3633  00745A  0E40               	movlw	64
  3634  00745C  EC56  F02C         	call	_sputc
  3635  007460  0EEE               	movlw	238
  3636  007462  EC56  F02C         	call	_sputc
  3637  007466  0E40               	movlw	64
  3638  007468  EC56  F02C         	call	_sputc
  3639                           
  3640                           ;confws.h: 119: sputc(224);sputc(64);swputc(senha[0]);swputc(senha[1]);swputc(senha[2]);
  3641  00746C  0EE0               	movlw	224
  3642  00746E  EC56  F02C         	call	_sputc
  3643  007472  0E40               	movlw	64
  3644  007474  EC56  F02C         	call	_sputc
  3645  007478  0E70               	movlw	low _senha
  3646  00747A  6EF6               	movwf	tblptrl,c
  3647  00747C  0E7E               	movlw	high _senha
  3648  00747E  6EF7               	movwf	tblptrh,c
  3649  007480  0008               	tblrd		*
  3650  007482  50F5               	movf	tablat,w,c
  3651  007484  EC23  F02C         	call	_swputc
  3652  007488  0E71               	movlw	low (_senha+1)
  3653  00748A  6EF6               	movwf	tblptrl,c
  3654  00748C  0E7E               	movlw	high (_senha+1)
  3655  00748E  6EF7               	movwf	tblptrh,c
  3656  007490  0008               	tblrd		*
  3657  007492  50F5               	movf	tablat,w,c
  3658  007494  EC23  F02C         	call	_swputc
  3659  007498  0E72               	movlw	low (_senha+2)
  3660  00749A  6EF6               	movwf	tblptrl,c
  3661  00749C  0E7E               	movlw	high (_senha+2)
  3662  00749E  6EF7               	movwf	tblptrh,c
  3663  0074A0  0008               	tblrd		*
  3664  0074A2  50F5               	movf	tablat,w,c
  3665  0074A4  EC23  F02C         	call	_swputc
  3666                           
  3667                           ;confws.h: 120: swputc(senha[3]);swputc(senha[4]);swputc(senha[5]);swputc(senha[6]);
  3668  0074A8  0E73               	movlw	low (_senha+3)
  3669  0074AA  6EF6               	movwf	tblptrl,c
  3670  0074AC  0E7E               	movlw	high (_senha+3)
  3671  0074AE  6EF7               	movwf	tblptrh,c
  3672  0074B0  0008               	tblrd		*
  3673  0074B2  50F5               	movf	tablat,w,c
  3674  0074B4  EC23  F02C         	call	_swputc
  3675  0074B8  0E74               	movlw	low (_senha+4)
  3676  0074BA  6EF6               	movwf	tblptrl,c
  3677  0074BC  0E7E               	movlw	high (_senha+4)
  3678  0074BE  6EF7               	movwf	tblptrh,c
  3679  0074C0  0008               	tblrd		*
  3680  0074C2  50F5               	movf	tablat,w,c
  3681  0074C4  EC23  F02C         	call	_swputc
  3682  0074C8  0E75               	movlw	low (_senha+5)
  3683  0074CA  6EF6               	movwf	tblptrl,c
  3684  0074CC  0E7E               	movlw	high (_senha+5)
  3685  0074CE  6EF7               	movwf	tblptrh,c
  3686  0074D0  0008               	tblrd		*
  3687  0074D2  50F5               	movf	tablat,w,c
  3688  0074D4  EC23  F02C         	call	_swputc
  3689  0074D8  0E76               	movlw	low (_senha+6)
  3690  0074DA  6EF6               	movwf	tblptrl,c
  3691  0074DC  0E7E               	movlw	high (_senha+6)
  3692  0074DE  6EF7               	movwf	tblptrh,c
  3693  0074E0  0008               	tblrd		*
  3694  0074E2  50F5               	movf	tablat,w,c
  3695  0074E4  EC23  F02C         	call	_swputc
  3696                           
  3697                           ;confws.h: 121: swputc(senha[7]);swputc(senha[8]);swputc(senha[9]);swputc(senha[10]);
  3698  0074E8  0E77               	movlw	low (_senha+7)
  3699  0074EA  6EF6               	movwf	tblptrl,c
  3700  0074EC  0E7E               	movlw	high (_senha+7)
  3701  0074EE  6EF7               	movwf	tblptrh,c
  3702  0074F0  0008               	tblrd		*
  3703  0074F2  50F5               	movf	tablat,w,c
  3704  0074F4  EC23  F02C         	call	_swputc
  3705  0074F8  0E78               	movlw	low (_senha+8)
  3706  0074FA  6EF6               	movwf	tblptrl,c
  3707  0074FC  0E7E               	movlw	high (_senha+8)
  3708  0074FE  6EF7               	movwf	tblptrh,c
  3709  007500  0008               	tblrd		*
  3710  007502  50F5               	movf	tablat,w,c
  3711  007504  EC23  F02C         	call	_swputc
  3712  007508  0E79               	movlw	low (_senha+9)
  3713  00750A  6EF6               	movwf	tblptrl,c
  3714  00750C  0E7E               	movlw	high (_senha+9)
  3715  00750E  6EF7               	movwf	tblptrh,c
  3716  007510  0008               	tblrd		*
  3717  007512  50F5               	movf	tablat,w,c
  3718  007514  EC23  F02C         	call	_swputc
  3719  007518  0E7A               	movlw	low (_senha+10)
  3720  00751A  6EF6               	movwf	tblptrl,c
  3721  00751C  0E7E               	movlw	high (_senha+10)
  3722  00751E  6EF7               	movwf	tblptrh,c
  3723  007520  0008               	tblrd		*
  3724  007522  50F5               	movf	tablat,w,c
  3725  007524  EC23  F02C         	call	_swputc
  3726                           
  3727                           ;confws.h: 122: swputc(senha[11]);swputc(senha[12]);swputc(senha[13]);swputc(senha[14]);
  3728  007528  0E7B               	movlw	low (_senha+11)
  3729  00752A  6EF6               	movwf	tblptrl,c
  3730  00752C  0E7E               	movlw	high (_senha+11)
  3731  00752E  6EF7               	movwf	tblptrh,c
  3732  007530  0008               	tblrd		*
  3733  007532  50F5               	movf	tablat,w,c
  3734  007534  EC23  F02C         	call	_swputc
  3735  007538  0E7C               	movlw	low (_senha+12)
  3736  00753A  6EF6               	movwf	tblptrl,c
  3737  00753C  0E7E               	movlw	high (_senha+12)
  3738  00753E  6EF7               	movwf	tblptrh,c
  3739  007540  0008               	tblrd		*
  3740  007542  50F5               	movf	tablat,w,c
  3741  007544  EC23  F02C         	call	_swputc
  3742  007548  0E7D               	movlw	low (_senha+13)
  3743  00754A  6EF6               	movwf	tblptrl,c
  3744  00754C  0E7E               	movlw	high (_senha+13)
  3745  00754E  6EF7               	movwf	tblptrh,c
  3746  007550  0008               	tblrd		*
  3747  007552  50F5               	movf	tablat,w,c
  3748  007554  EC23  F02C         	call	_swputc
  3749  007558  0E7E               	movlw	low (_senha+14)
  3750  00755A  6EF6               	movwf	tblptrl,c
  3751  00755C  0E7E               	movlw	high (_senha+14)
  3752  00755E  6EF7               	movwf	tblptrh,c
  3753  007560  0008               	tblrd		*
  3754  007562  50F5               	movf	tablat,w,c
  3755  007564  EC23  F02C         	call	_swputc
  3756                           
  3757                           ;confws.h: 123: swputc(senha[15]);swputc(senha[16]);sputc(26);tempo_ms (500); inverte_sa
      +                          ida(31759);
  3758  007568  0E7F               	movlw	low (_senha+15)
  3759  00756A  6EF6               	movwf	tblptrl,c
  3760  00756C  0E7E               	movlw	high (_senha+15)
  3761  00756E  6EF7               	movwf	tblptrh,c
  3762  007570  0008               	tblrd		*
  3763  007572  50F5               	movf	tablat,w,c
  3764  007574  EC23  F02C         	call	_swputc
  3765  007578  0E80               	movlw	low (_senha+16)
  3766  00757A  6EF6               	movwf	tblptrl,c
  3767  00757C  0E7E               	movlw	high (_senha+16)
  3768  00757E  6EF7               	movwf	tblptrh,c
  3769  007580  0008               	tblrd		*
  3770  007582  50F5               	movf	tablat,w,c
  3771  007584  EC23  F02C         	call	_swputc
  3772  007588  0E1A               	movlw	26
  3773  00758A  EC56  F02C         	call	_sputc
  3774  00758E  0E01               	movlw	1
  3775  007590  6E1B               	movwf	tempo_ms@i+1,c
  3776  007592  0EF4               	movlw	244
  3777  007594  6E1A               	movwf	tempo_ms@i,c
  3778  007596  ECCD  F02C         	call	_tempo_ms	;wreg free
  3779  00759A  0E7C               	movlw	124
  3780  00759C  6E15               	movwf	inverte_saida@pino+1,c
  3781  00759E  0E0F               	movlw	15
  3782  0075A0  6E14               	movwf	inverte_saida@pino,c
  3783  0075A2  ECD8  F02F         	call	_inverte_saida	;wreg free
  3784                           
  3785                           ;confws.h: 124: while (AT1==0){ tempo_ms (2000);
  3786  0075A6  D0B6               	goto	l2689
  3787  0075A8                     l2631:
  3788  0075A8  0E07               	movlw	7
  3789  0075AA  6E1B               	movwf	tempo_ms@i+1,c
  3790  0075AC  0ED0               	movlw	208
  3791  0075AE  6E1A               	movwf	tempo_ms@i,c
  3792  0075B0  ECCD  F02C         	call	_tempo_ms	;wreg free
  3793                           
  3794                           ;confws.h: 125: sputc(223+i);sputc(202);sputc(232);sputc(64);sputc(238);sputc(64);
  3795  0075B4  501F               	movf	iniws@i,w,c
  3796  0075B6  0FDF               	addlw	223
  3797  0075B8  EC56  F02C         	call	_sputc
  3798  0075BC  0ECA               	movlw	202
  3799  0075BE  EC56  F02C         	call	_sputc
  3800  0075C2  0EE8               	movlw	232
  3801  0075C4  EC56  F02C         	call	_sputc
  3802  0075C8  0E40               	movlw	64
  3803  0075CA  EC56  F02C         	call	_sputc
  3804  0075CE  0EEE               	movlw	238
  3805  0075D0  EC56  F02C         	call	_sputc
  3806  0075D4  0E40               	movlw	64
  3807  0075D6  EC56  F02C         	call	_sputc
  3808                           
  3809                           ;confws.h: 126: sputc(224);sputc(64);swputc(senha[0]);swputc(senha[1]);swputc(senha[2]);
  3810  0075DA  0EE0               	movlw	224
  3811  0075DC  EC56  F02C         	call	_sputc
  3812  0075E0  0E40               	movlw	64
  3813  0075E2  EC56  F02C         	call	_sputc
  3814  0075E6  0E70               	movlw	low _senha
  3815  0075E8  6EF6               	movwf	tblptrl,c
  3816  0075EA  0E7E               	movlw	high _senha
  3817  0075EC  6EF7               	movwf	tblptrh,c
  3818  0075EE  0008               	tblrd		*
  3819  0075F0  50F5               	movf	tablat,w,c
  3820  0075F2  EC23  F02C         	call	_swputc
  3821  0075F6  0E71               	movlw	low (_senha+1)
  3822  0075F8  6EF6               	movwf	tblptrl,c
  3823  0075FA  0E7E               	movlw	high (_senha+1)
  3824  0075FC  6EF7               	movwf	tblptrh,c
  3825  0075FE  0008               	tblrd		*
  3826  007600  50F5               	movf	tablat,w,c
  3827  007602  EC23  F02C         	call	_swputc
  3828  007606  0E72               	movlw	low (_senha+2)
  3829  007608  6EF6               	movwf	tblptrl,c
  3830  00760A  0E7E               	movlw	high (_senha+2)
  3831  00760C  6EF7               	movwf	tblptrh,c
  3832  00760E  0008               	tblrd		*
  3833  007610  50F5               	movf	tablat,w,c
  3834  007612  EC23  F02C         	call	_swputc
  3835                           
  3836                           ;confws.h: 127: swputc(senha[3]);swputc(senha[4]);swputc(senha[5]);swputc(senha[6]);
  3837  007616  0E73               	movlw	low (_senha+3)
  3838  007618  6EF6               	movwf	tblptrl,c
  3839  00761A  0E7E               	movlw	high (_senha+3)
  3840  00761C  6EF7               	movwf	tblptrh,c
  3841  00761E  0008               	tblrd		*
  3842  007620  50F5               	movf	tablat,w,c
  3843  007622  EC23  F02C         	call	_swputc
  3844  007626  0E74               	movlw	low (_senha+4)
  3845  007628  6EF6               	movwf	tblptrl,c
  3846  00762A  0E7E               	movlw	high (_senha+4)
  3847  00762C  6EF7               	movwf	tblptrh,c
  3848  00762E  0008               	tblrd		*
  3849  007630  50F5               	movf	tablat,w,c
  3850  007632  EC23  F02C         	call	_swputc
  3851  007636  0E75               	movlw	low (_senha+5)
  3852  007638  6EF6               	movwf	tblptrl,c
  3853  00763A  0E7E               	movlw	high (_senha+5)
  3854  00763C  6EF7               	movwf	tblptrh,c
  3855  00763E  0008               	tblrd		*
  3856  007640  50F5               	movf	tablat,w,c
  3857  007642  EC23  F02C         	call	_swputc
  3858  007646  0E76               	movlw	low (_senha+6)
  3859  007648  6EF6               	movwf	tblptrl,c
  3860  00764A  0E7E               	movlw	high (_senha+6)
  3861  00764C  6EF7               	movwf	tblptrh,c
  3862  00764E  0008               	tblrd		*
  3863  007650  50F5               	movf	tablat,w,c
  3864  007652  EC23  F02C         	call	_swputc
  3865                           
  3866                           ;confws.h: 128: swputc(senha[7]);swputc(senha[8]);swputc(senha[9]);swputc(senha[10]);
  3867  007656  0E77               	movlw	low (_senha+7)
  3868  007658  6EF6               	movwf	tblptrl,c
  3869  00765A  0E7E               	movlw	high (_senha+7)
  3870  00765C  6EF7               	movwf	tblptrh,c
  3871  00765E  0008               	tblrd		*
  3872  007660  50F5               	movf	tablat,w,c
  3873  007662  EC23  F02C         	call	_swputc
  3874  007666  0E78               	movlw	low (_senha+8)
  3875  007668  6EF6               	movwf	tblptrl,c
  3876  00766A  0E7E               	movlw	high (_senha+8)
  3877  00766C  6EF7               	movwf	tblptrh,c
  3878  00766E  0008               	tblrd		*
  3879  007670  50F5               	movf	tablat,w,c
  3880  007672  EC23  F02C         	call	_swputc
  3881  007676  0E79               	movlw	low (_senha+9)
  3882  007678  6EF6               	movwf	tblptrl,c
  3883  00767A  0E7E               	movlw	high (_senha+9)
  3884  00767C  6EF7               	movwf	tblptrh,c
  3885  00767E  0008               	tblrd		*
  3886  007680  50F5               	movf	tablat,w,c
  3887  007682  EC23  F02C         	call	_swputc
  3888  007686  0E7A               	movlw	low (_senha+10)
  3889  007688  6EF6               	movwf	tblptrl,c
  3890  00768A  0E7E               	movlw	high (_senha+10)
  3891  00768C  6EF7               	movwf	tblptrh,c
  3892  00768E  0008               	tblrd		*
  3893  007690  50F5               	movf	tablat,w,c
  3894  007692  EC23  F02C         	call	_swputc
  3895                           
  3896                           ;confws.h: 129: swputc(senha[11]);swputc(senha[12]);swputc(senha[13]);swputc(senha[14]);
  3897  007696  0E7B               	movlw	low (_senha+11)
  3898  007698  6EF6               	movwf	tblptrl,c
  3899  00769A  0E7E               	movlw	high (_senha+11)
  3900  00769C  6EF7               	movwf	tblptrh,c
  3901  00769E  0008               	tblrd		*
  3902  0076A0  50F5               	movf	tablat,w,c
  3903  0076A2  EC23  F02C         	call	_swputc
  3904  0076A6  0E7C               	movlw	low (_senha+12)
  3905  0076A8  6EF6               	movwf	tblptrl,c
  3906  0076AA  0E7E               	movlw	high (_senha+12)
  3907  0076AC  6EF7               	movwf	tblptrh,c
  3908  0076AE  0008               	tblrd		*
  3909  0076B0  50F5               	movf	tablat,w,c
  3910  0076B2  EC23  F02C         	call	_swputc
  3911  0076B6  0E7D               	movlw	low (_senha+13)
  3912  0076B8  6EF6               	movwf	tblptrl,c
  3913  0076BA  0E7E               	movlw	high (_senha+13)
  3914  0076BC  6EF7               	movwf	tblptrh,c
  3915  0076BE  0008               	tblrd		*
  3916  0076C0  50F5               	movf	tablat,w,c
  3917  0076C2  EC23  F02C         	call	_swputc
  3918  0076C6  0E7E               	movlw	low (_senha+14)
  3919  0076C8  6EF6               	movwf	tblptrl,c
  3920  0076CA  0E7E               	movlw	high (_senha+14)
  3921  0076CC  6EF7               	movwf	tblptrh,c
  3922  0076CE  0008               	tblrd		*
  3923  0076D0  50F5               	movf	tablat,w,c
  3924  0076D2  EC23  F02C         	call	_swputc
  3925                           
  3926                           ;confws.h: 130: swputc(senha[15]);swputc(senha[16]);sputc(26);tempo_ms(500); inverte_sai
      +                          da(31759);
  3927  0076D6  0E7F               	movlw	low (_senha+15)
  3928  0076D8  6EF6               	movwf	tblptrl,c
  3929  0076DA  0E7E               	movlw	high (_senha+15)
  3930  0076DC  6EF7               	movwf	tblptrh,c
  3931  0076DE  0008               	tblrd		*
  3932  0076E0  50F5               	movf	tablat,w,c
  3933  0076E2  EC23  F02C         	call	_swputc
  3934  0076E6  0E80               	movlw	low (_senha+16)
  3935  0076E8  6EF6               	movwf	tblptrl,c
  3936  0076EA  0E7E               	movlw	high (_senha+16)
  3937  0076EC  6EF7               	movwf	tblptrh,c
  3938  0076EE  0008               	tblrd		*
  3939  0076F0  50F5               	movf	tablat,w,c
  3940  0076F2  EC23  F02C         	call	_swputc
  3941  0076F6  0E1A               	movlw	26
  3942  0076F8  EC56  F02C         	call	_sputc
  3943  0076FC  0E01               	movlw	1
  3944  0076FE  6E1B               	movwf	tempo_ms@i+1,c
  3945  007700  0EF4               	movlw	244
  3946  007702  6E1A               	movwf	tempo_ms@i,c
  3947  007704  ECCD  F02C         	call	_tempo_ms	;wreg free
  3948  007708  0E7C               	movlw	124
  3949  00770A  6E15               	movwf	inverte_saida@pino+1,c
  3950  00770C  0E0F               	movlw	15
  3951  00770E  6E14               	movwf	inverte_saida@pino,c
  3952  007710  ECD8  F02F         	call	_inverte_saida	;wreg free
  3953  007714                     l2689:
  3954  007714  5039               	movf	_AT1+1,w,c
  3955  007716  1038               	iorwf	_AT1,w,c
  3956  007718  B4D8               	btfsc	status,2,c
  3957  00771A  D746               	goto	l2631
  3958                           
  3959                           ;confws.h: 131: }
  3960                           ;confws.h: 132: AT1=0;--i;
  3961  00771C  0E00               	movlw	0
  3962  00771E  6E39               	movwf	_AT1+1,c
  3963  007720  0E00               	movlw	0
  3964  007722  6E38               	movwf	_AT1,c
  3965  007724  061F               	decf	iniws@i,f,c
  3966                           
  3967                           ;confws.h: 134: sputc(224+i);sputc(202);sputc(232);sputc(64);sputc(198);sputc(222);
  3968  007726  501F               	movf	iniws@i,w,c
  3969  007728  0FE0               	addlw	224
  3970  00772A  EC56  F02C         	call	_sputc
  3971  00772E  0ECA               	movlw	202
  3972  007730  EC56  F02C         	call	_sputc
  3973  007734  0EE8               	movlw	232
  3974  007736  EC56  F02C         	call	_sputc
  3975  00773A  0E40               	movlw	64
  3976  00773C  EC56  F02C         	call	_sputc
  3977  007740  0EC6               	movlw	198
  3978  007742  EC56  F02C         	call	_sputc
  3979  007746  0EDE               	movlw	222
  3980  007748  EC56  F02C         	call	_sputc
  3981                           
  3982                           ;confws.h: 135: sputc(218);sputc(218);sputc(64);sputc(222);sputc(224);sputc(202);
  3983  00774C  0EDA               	movlw	218
  3984  00774E  EC56  F02C         	call	_sputc
  3985  007752  0EDA               	movlw	218
  3986  007754  EC56  F02C         	call	_sputc
  3987  007758  0E40               	movlw	64
  3988  00775A  EC56  F02C         	call	_sputc
  3989  00775E  0EDE               	movlw	222
  3990  007760  EC56  F02C         	call	_sputc
  3991  007764  0EE0               	movlw	224
  3992  007766  EC56  F02C         	call	_sputc
  3993  00776A  0ECA               	movlw	202
  3994  00776C  EC56  F02C         	call	_sputc
  3995                           
  3996                           ;confws.h: 136: sputc(220);sputc(64);sputc(84);sputc(166);sputc(194);sputc(220);
  3997  007770  0EDC               	movlw	220
  3998  007772  EC56  F02C         	call	_sputc
  3999  007776  0E40               	movlw	64
  4000  007778  EC56  F02C         	call	_sputc
  4001  00777C  0E54               	movlw	84
  4002  00777E  EC56  F02C         	call	_sputc
  4003  007782  0EA6               	movlw	166
  4004  007784  EC56  F02C         	call	_sputc
  4005  007788  0EC2               	movlw	194
  4006  00778A  EC56  F02C         	call	_sputc
  4007  00778E  0EDC               	movlw	220
  4008  007790  EC56  F02C         	call	_sputc
  4009                           
  4010                           ;confws.h: 137: sputc(170);sputc(166);sputc(132);sputc(84);sputc(26);
  4011  007794  0EAA               	movlw	170
  4012  007796  EC56  F02C         	call	_sputc
  4013  00779A  0EA6               	movlw	166
  4014  00779C  EC56  F02C         	call	_sputc
  4015  0077A0  0E84               	movlw	132
  4016  0077A2  EC56  F02C         	call	_sputc
  4017  0077A6  0E54               	movlw	84
  4018  0077A8  EC56  F02C         	call	_sputc
  4019  0077AC  0E1A               	movlw	26
  4020  0077AE  EC56  F02C         	call	_sputc
  4021                           
  4022                           ;confws.h: 138: tempo_ms (500); inverte_saida(31759);
  4023  0077B2  0E01               	movlw	1
  4024  0077B4  6E1B               	movwf	tempo_ms@i+1,c
  4025  0077B6  0EF4               	movlw	244
  4026  0077B8  6E1A               	movwf	tempo_ms@i,c
  4027  0077BA  ECCD  F02C         	call	_tempo_ms	;wreg free
  4028  0077BE  0E7C               	movlw	124
  4029  0077C0  6E15               	movwf	inverte_saida@pino+1,c
  4030  0077C2  0E0F               	movlw	15
  4031  0077C4  6E14               	movwf	inverte_saida@pino,c
  4032  0077C6  ECD8  F02F         	call	_inverte_saida	;wreg free
  4033                           
  4034                           ;confws.h: 139: while (AT1==0){ tempo_ms (1000);
  4035  0077CA  D052               	goto	l2795
  4036  0077CC                     l2745:
  4037  0077CC  0E03               	movlw	3
  4038  0077CE  6E1B               	movwf	tempo_ms@i+1,c
  4039  0077D0  0EE8               	movlw	232
  4040  0077D2  6E1A               	movwf	tempo_ms@i,c
  4041  0077D4  ECCD  F02C         	call	_tempo_ms	;wreg free
  4042                           
  4043                           ;confws.h: 140: sputc(224+i);sputc(202);sputc(232);sputc(64);sputc(198);sputc(222);
  4044  0077D8  501F               	movf	iniws@i,w,c
  4045  0077DA  0FE0               	addlw	224
  4046  0077DC  EC56  F02C         	call	_sputc
  4047  0077E0  0ECA               	movlw	202
  4048  0077E2  EC56  F02C         	call	_sputc
  4049  0077E6  0EE8               	movlw	232
  4050  0077E8  EC56  F02C         	call	_sputc
  4051  0077EC  0E40               	movlw	64
  4052  0077EE  EC56  F02C         	call	_sputc
  4053  0077F2  0EC6               	movlw	198
  4054  0077F4  EC56  F02C         	call	_sputc
  4055  0077F8  0EDE               	movlw	222
  4056  0077FA  EC56  F02C         	call	_sputc
  4057                           
  4058                           ;confws.h: 141: sputc(218);sputc(218);sputc(64);sputc(222);sputc(224);sputc(202);
  4059  0077FE  0EDA               	movlw	218
  4060  007800  EC56  F02C         	call	_sputc
  4061  007804  0EDA               	movlw	218
  4062  007806  EC56  F02C         	call	_sputc
  4063  00780A  0E40               	movlw	64
  4064  00780C  EC56  F02C         	call	_sputc
  4065  007810  0EDE               	movlw	222
  4066  007812  EC56  F02C         	call	_sputc
  4067  007816  0EE0               	movlw	224
  4068  007818  EC56  F02C         	call	_sputc
  4069  00781C  0ECA               	movlw	202
  4070  00781E  EC56  F02C         	call	_sputc
  4071                           
  4072                           ;confws.h: 142: sputc(220);sputc(64);sputc(84);sputc(166);sputc(194);sputc(220);
  4073  007822  0EDC               	movlw	220
  4074  007824  EC56  F02C         	call	_sputc
  4075  007828  0E40               	movlw	64
  4076  00782A  EC56  F02C         	call	_sputc
  4077  00782E  0E54               	movlw	84
  4078  007830  EC56  F02C         	call	_sputc
  4079  007834  0EA6               	movlw	166
  4080  007836  EC56  F02C         	call	_sputc
  4081  00783A  0EC2               	movlw	194
  4082  00783C  EC56  F02C         	call	_sputc
  4083  007840  0EDC               	movlw	220
  4084  007842  EC56  F02C         	call	_sputc
  4085                           
  4086                           ;confws.h: 143: sputc(170);sputc(166);sputc(132);sputc(84);sputc(26);
  4087  007846  0EAA               	movlw	170
  4088  007848  EC56  F02C         	call	_sputc
  4089  00784C  0EA6               	movlw	166
  4090  00784E  EC56  F02C         	call	_sputc
  4091  007852  0E84               	movlw	132
  4092  007854  EC56  F02C         	call	_sputc
  4093  007858  0E54               	movlw	84
  4094  00785A  EC56  F02C         	call	_sputc
  4095  00785E  0E1A               	movlw	26
  4096  007860  EC56  F02C         	call	_sputc
  4097                           
  4098                           ;confws.h: 144: inverte_saida(31759);}
  4099  007864  0E7C               	movlw	124
  4100  007866  6E15               	movwf	inverte_saida@pino+1,c
  4101  007868  0E0F               	movlw	15
  4102  00786A  6E14               	movwf	inverte_saida@pino,c
  4103  00786C  ECD8  F02F         	call	_inverte_saida	;wreg free
  4104  007870                     l2795:
  4105  007870  5039               	movf	_AT1+1,w,c
  4106  007872  1038               	iorwf	_AT1,w,c
  4107  007874  B4D8               	btfsc	status,2,c
  4108  007876  D7AA               	goto	l2745
  4109                           
  4110                           ;confws.h: 145: AT1=0;--i;
  4111  007878  0E00               	movlw	0
  4112  00787A  6E39               	movwf	_AT1+1,c
  4113  00787C  0E00               	movlw	0
  4114  00787E  6E38               	movwf	_AT1,c
  4115  007880  061F               	decf	iniws@i,f,c
  4116                           
  4117                           ;confws.h: 147: sputc(225+i);sputc(202);sputc(232);sputc(64);sputc(198);sputc(222);
  4118  007882  501F               	movf	iniws@i,w,c
  4119  007884  0FE1               	addlw	225
  4120  007886  EC56  F02C         	call	_sputc
  4121  00788A  0ECA               	movlw	202
  4122  00788C  EC56  F02C         	call	_sputc
  4123  007890  0EE8               	movlw	232
  4124  007892  EC56  F02C         	call	_sputc
  4125  007896  0E40               	movlw	64
  4126  007898  EC56  F02C         	call	_sputc
  4127  00789C  0EC6               	movlw	198
  4128  00789E  EC56  F02C         	call	_sputc
  4129  0078A2  0EDE               	movlw	222
  4130  0078A4  EC56  F02C         	call	_sputc
  4131                           
  4132                           ;confws.h: 148: sputc(218);sputc(218);sputc(64);sputc(228);sputc(202);sputc(218);
  4133  0078A8  0EDA               	movlw	218
  4134  0078AA  EC56  F02C         	call	_sputc
  4135  0078AE  0EDA               	movlw	218
  4136  0078B0  EC56  F02C         	call	_sputc
  4137  0078B4  0E40               	movlw	64
  4138  0078B6  EC56  F02C         	call	_sputc
  4139  0078BA  0EE4               	movlw	228
  4140  0078BC  EC56  F02C         	call	_sputc
  4141  0078C0  0ECA               	movlw	202
  4142  0078C2  EC56  F02C         	call	_sputc
  4143  0078C6  0EDA               	movlw	218
  4144  0078C8  EC56  F02C         	call	_sputc
  4145                           
  4146                           ;confws.h: 149: sputc(222);sputc(232);sputc(202);sputc(64);sputc(60);
  4147  0078CC  0EDE               	movlw	222
  4148  0078CE  EC56  F02C         	call	_sputc
  4149  0078D2  0EE8               	movlw	232
  4150  0078D4  EC56  F02C         	call	_sputc
  4151  0078D8  0ECA               	movlw	202
  4152  0078DA  EC56  F02C         	call	_sputc
  4153  0078DE  0E40               	movlw	64
  4154  0078E0  EC56  F02C         	call	_sputc
  4155  0078E4  0E3C               	movlw	60
  4156  0078E6  EC56  F02C         	call	_sputc
  4157                           
  4158                           ;confws.h: 150: sputc(26);inverte_saida(31759);
  4159  0078EA  0E1A               	movlw	26
  4160  0078EC  EC56  F02C         	call	_sputc
  4161  0078F0  0E7C               	movlw	124
  4162  0078F2  6E15               	movwf	inverte_saida@pino+1,c
  4163  0078F4  0E0F               	movlw	15
  4164  0078F6  6E14               	movwf	inverte_saida@pino,c
  4165  0078F8  ECD8  F02F         	call	_inverte_saida	;wreg free
  4166                           
  4167                           ;confws.h: 151: tempo_ms (500);inverte_saida(31759);
  4168  0078FC  0E01               	movlw	1
  4169  0078FE  6E1B               	movwf	tempo_ms@i+1,c
  4170  007900  0EF4               	movlw	244
  4171  007902  6E1A               	movwf	tempo_ms@i,c
  4172  007904  ECCD  F02C         	call	_tempo_ms	;wreg free
  4173  007908  0E7C               	movlw	124
  4174  00790A  6E15               	movwf	inverte_saida@pino+1,c
  4175  00790C  0E0F               	movlw	15
  4176  00790E  6E14               	movwf	inverte_saida@pino,c
  4177  007910  ECD8  F02F         	call	_inverte_saida	;wreg free
  4178                           
  4179                           ;confws.h: 152: while (AT1==0){ tempo_ms (1000);
  4180  007914  D058               	goto	l2897
  4181  007916                     l2843:
  4182  007916  0E03               	movlw	3
  4183  007918  6E1B               	movwf	tempo_ms@i+1,c
  4184  00791A  0EE8               	movlw	232
  4185  00791C  6E1A               	movwf	tempo_ms@i,c
  4186  00791E  ECCD  F02C         	call	_tempo_ms	;wreg free
  4187                           
  4188                           ;confws.h: 153: sputc(225+i);sputc(202);sputc(232);sputc(64);sputc(198);sputc(222);
  4189  007922  501F               	movf	iniws@i,w,c
  4190  007924  0FE1               	addlw	225
  4191  007926  EC56  F02C         	call	_sputc
  4192  00792A  0ECA               	movlw	202
  4193  00792C  EC56  F02C         	call	_sputc
  4194  007930  0EE8               	movlw	232
  4195  007932  EC56  F02C         	call	_sputc
  4196  007936  0E40               	movlw	64
  4197  007938  EC56  F02C         	call	_sputc
  4198  00793C  0EC6               	movlw	198
  4199  00793E  EC56  F02C         	call	_sputc
  4200  007942  0EDE               	movlw	222
  4201  007944  EC56  F02C         	call	_sputc
  4202                           
  4203                           ;confws.h: 154: sputc(218);sputc(218);sputc(64);sputc(228);sputc(202);sputc(218);
  4204  007948  0EDA               	movlw	218
  4205  00794A  EC56  F02C         	call	_sputc
  4206  00794E  0EDA               	movlw	218
  4207  007950  EC56  F02C         	call	_sputc
  4208  007954  0E40               	movlw	64
  4209  007956  EC56  F02C         	call	_sputc
  4210  00795A  0EE4               	movlw	228
  4211  00795C  EC56  F02C         	call	_sputc
  4212  007960  0ECA               	movlw	202
  4213  007962  EC56  F02C         	call	_sputc
  4214  007966  0EDA               	movlw	218
  4215  007968  EC56  F02C         	call	_sputc
  4216                           
  4217                           ;confws.h: 155: sputc(222);sputc(232);sputc(202);sputc(64);sputc(84);sputc(166);
  4218  00796C  0EDE               	movlw	222
  4219  00796E  EC56  F02C         	call	_sputc
  4220  007972  0EE8               	movlw	232
  4221  007974  EC56  F02C         	call	_sputc
  4222  007978  0ECA               	movlw	202
  4223  00797A  EC56  F02C         	call	_sputc
  4224  00797E  0E40               	movlw	64
  4225  007980  EC56  F02C         	call	_sputc
  4226  007984  0E54               	movlw	84
  4227  007986  EC56  F02C         	call	_sputc
  4228  00798A  0EA6               	movlw	166
  4229  00798C  EC56  F02C         	call	_sputc
  4230                           
  4231                           ;confws.h: 156: sputc(194);sputc(220);sputc(170);sputc(166);sputc(132);sputc(84);
  4232  007990  0EC2               	movlw	194
  4233  007992  EC56  F02C         	call	_sputc
  4234  007996  0EDC               	movlw	220
  4235  007998  EC56  F02C         	call	_sputc
  4236  00799C  0EAA               	movlw	170
  4237  00799E  EC56  F02C         	call	_sputc
  4238  0079A2  0EA6               	movlw	166
  4239  0079A4  EC56  F02C         	call	_sputc
  4240  0079A8  0E84               	movlw	132
  4241  0079AA  EC56  F02C         	call	_sputc
  4242  0079AE  0E54               	movlw	84
  4243  0079B0  EC56  F02C         	call	_sputc
  4244                           
  4245                           ;confws.h: 157: sputc(26);inverte_saida(31759);}
  4246  0079B4  0E1A               	movlw	26
  4247  0079B6  EC56  F02C         	call	_sputc
  4248  0079BA  0E7C               	movlw	124
  4249  0079BC  6E15               	movwf	inverte_saida@pino+1,c
  4250  0079BE  0E0F               	movlw	15
  4251  0079C0  6E14               	movwf	inverte_saida@pino,c
  4252  0079C2  ECD8  F02F         	call	_inverte_saida	;wreg free
  4253  0079C6                     l2897:
  4254  0079C6  5039               	movf	_AT1+1,w,c
  4255  0079C8  1038               	iorwf	_AT1,w,c
  4256  0079CA  B4D8               	btfsc	status,2,c
  4257  0079CC  D7A4               	goto	l2843
  4258                           
  4259                           ;confws.h: 158: AT1=0;--i;
  4260  0079CE  0E00               	movlw	0
  4261  0079D0  6E39               	movwf	_AT1+1,c
  4262  0079D2  0E00               	movlw	0
  4263  0079D4  6E38               	movwf	_AT1,c
  4264  0079D6  061F               	decf	iniws@i,f,c
  4265                           
  4266                           ;confws.h: 160: sputc(226+i);sputc(202);sputc(232);sputc(64);sputc(210);sputc(224);
  4267  0079D8  501F               	movf	iniws@i,w,c
  4268  0079DA  0FE2               	addlw	226
  4269  0079DC  EC56  F02C         	call	_sputc
  4270  0079E0  0ECA               	movlw	202
  4271  0079E2  EC56  F02C         	call	_sputc
  4272  0079E6  0EE8               	movlw	232
  4273  0079E8  EC56  F02C         	call	_sputc
  4274  0079EC  0E40               	movlw	64
  4275  0079EE  EC56  F02C         	call	_sputc
  4276  0079F2  0ED2               	movlw	210
  4277  0079F4  EC56  F02C         	call	_sputc
  4278  0079F8  0EE0               	movlw	224
  4279  0079FA  EC56  F02C         	call	_sputc
  4280                           
  4281                           ;confws.h: 161: sputc(64);sputc(216);sputc(222);sputc(198);sputc(194);sputc(216);
  4282  0079FE  0E40               	movlw	64
  4283  007A00  EC56  F02C         	call	_sputc
  4284  007A04  0ED8               	movlw	216
  4285  007A06  EC56  F02C         	call	_sputc
  4286  007A0A  0EDE               	movlw	222
  4287  007A0C  EC56  F02C         	call	_sputc
  4288  007A10  0EC6               	movlw	198
  4289  007A12  EC56  F02C         	call	_sputc
  4290  007A16  0EC2               	movlw	194
  4291  007A18  EC56  F02C         	call	_sputc
  4292  007A1C  0ED8               	movlw	216
  4293  007A1E  EC56  F02C         	call	_sputc
  4294                           
  4295                           ;confws.h: 162: sputc(64);sputc(112);sputc(96);sputc(26);
  4296  007A22  0E40               	movlw	64
  4297  007A24  EC56  F02C         	call	_sputc
  4298  007A28  0E70               	movlw	112
  4299  007A2A  EC56  F02C         	call	_sputc
  4300  007A2E  0E60               	movlw	96
  4301  007A30  EC56  F02C         	call	_sputc
  4302  007A34  0E1A               	movlw	26
  4303  007A36  EC56  F02C         	call	_sputc
  4304                           
  4305                           ;confws.h: 163: tempo_ms (500);inverte_saida(31759);
  4306  007A3A  0E01               	movlw	1
  4307  007A3C  6E1B               	movwf	tempo_ms@i+1,c
  4308  007A3E  0EF4               	movlw	244
  4309  007A40  6E1A               	movwf	tempo_ms@i,c
  4310  007A42  ECCD  F02C         	call	_tempo_ms	;wreg free
  4311  007A46  0E7C               	movlw	124
  4312  007A48  6E15               	movwf	inverte_saida@pino+1,c
  4313  007A4A  0E0F               	movlw	15
  4314  007A4C  6E14               	movwf	inverte_saida@pino,c
  4315  007A4E  ECD8  F02F         	call	_inverte_saida	;wreg free
  4316                           
  4317                           ;confws.h: 164: while (AT1==0){ tempo_ms (1000);
  4318  007A52  D03D               	goto	l2975
  4319  007A54                     l2939:
  4320  007A54  0E03               	movlw	3
  4321  007A56  6E1B               	movwf	tempo_ms@i+1,c
  4322  007A58  0EE8               	movlw	232
  4323  007A5A  6E1A               	movwf	tempo_ms@i,c
  4324  007A5C  ECCD  F02C         	call	_tempo_ms	;wreg free
  4325                           
  4326                           ;confws.h: 165: sputc(226+i);sputc(202);sputc(232);sputc(64);sputc(210);sputc(224);
  4327  007A60  501F               	movf	iniws@i,w,c
  4328  007A62  0FE2               	addlw	226
  4329  007A64  EC56  F02C         	call	_sputc
  4330  007A68  0ECA               	movlw	202
  4331  007A6A  EC56  F02C         	call	_sputc
  4332  007A6E  0EE8               	movlw	232
  4333  007A70  EC56  F02C         	call	_sputc
  4334  007A74  0E40               	movlw	64
  4335  007A76  EC56  F02C         	call	_sputc
  4336  007A7A  0ED2               	movlw	210
  4337  007A7C  EC56  F02C         	call	_sputc
  4338  007A80  0EE0               	movlw	224
  4339  007A82  EC56  F02C         	call	_sputc
  4340                           
  4341                           ;confws.h: 166: sputc(64);sputc(216);sputc(222);sputc(198);sputc(194);sputc(216);
  4342  007A86  0E40               	movlw	64
  4343  007A88  EC56  F02C         	call	_sputc
  4344  007A8C  0ED8               	movlw	216
  4345  007A8E  EC56  F02C         	call	_sputc
  4346  007A92  0EDE               	movlw	222
  4347  007A94  EC56  F02C         	call	_sputc
  4348  007A98  0EC6               	movlw	198
  4349  007A9A  EC56  F02C         	call	_sputc
  4350  007A9E  0EC2               	movlw	194
  4351  007AA0  EC56  F02C         	call	_sputc
  4352  007AA4  0ED8               	movlw	216
  4353  007AA6  EC56  F02C         	call	_sputc
  4354                           
  4355                           ;confws.h: 167: sputc(64);sputc(112);sputc(96);sputc(26);
  4356  007AAA  0E40               	movlw	64
  4357  007AAC  EC56  F02C         	call	_sputc
  4358  007AB0  0E70               	movlw	112
  4359  007AB2  EC56  F02C         	call	_sputc
  4360  007AB6  0E60               	movlw	96
  4361  007AB8  EC56  F02C         	call	_sputc
  4362  007ABC  0E1A               	movlw	26
  4363  007ABE  EC56  F02C         	call	_sputc
  4364                           
  4365                           ;confws.h: 168: inverte_saida(31759);}
  4366  007AC2  0E7C               	movlw	124
  4367  007AC4  6E15               	movwf	inverte_saida@pino+1,c
  4368  007AC6  0E0F               	movlw	15
  4369  007AC8  6E14               	movwf	inverte_saida@pino,c
  4370  007ACA  ECD8  F02F         	call	_inverte_saida	;wreg free
  4371  007ACE                     l2975:
  4372  007ACE  5039               	movf	_AT1+1,w,c
  4373  007AD0  1038               	iorwf	_AT1,w,c
  4374  007AD2  B4D8               	btfsc	status,2,c
  4375  007AD4  D7BF               	goto	l2939
  4376                           
  4377                           ;confws.h: 169: AT1=0;--i;
  4378  007AD6  0E00               	movlw	0
  4379  007AD8  6E39               	movwf	_AT1+1,c
  4380  007ADA  0E00               	movlw	0
  4381  007ADC  6E38               	movwf	_AT1,c
  4382  007ADE  061F               	decf	iniws@i,f,c
  4383                           
  4384                           ;confws.h: 171: sputc(227+i);sputc(194);sputc(236);sputc(202);sputc(26);
  4385  007AE0  501F               	movf	iniws@i,w,c
  4386  007AE2  0FE3               	addlw	227
  4387  007AE4  EC56  F02C         	call	_sputc
  4388  007AE8  0EC2               	movlw	194
  4389  007AEA  EC56  F02C         	call	_sputc
  4390  007AEE  0EEC               	movlw	236
  4391  007AF0  EC56  F02C         	call	_sputc
  4392  007AF4  0ECA               	movlw	202
  4393  007AF6  EC56  F02C         	call	_sputc
  4394  007AFA  0E1A               	movlw	26
  4395  007AFC  EC56  F02C         	call	_sputc
  4396                           
  4397                           ;confws.h: 172: tempo_ms (1000); inverte_saida(31759);
  4398  007B00  0E03               	movlw	3
  4399  007B02  6E1B               	movwf	tempo_ms@i+1,c
  4400  007B04  0EE8               	movlw	232
  4401  007B06  6E1A               	movwf	tempo_ms@i,c
  4402  007B08  ECCD  F02C         	call	_tempo_ms	;wreg free
  4403  007B0C  0E7C               	movlw	124
  4404  007B0E  6E15               	movwf	inverte_saida@pino+1,c
  4405  007B10  0E0F               	movlw	15
  4406  007B12  6E14               	movwf	inverte_saida@pino,c
  4407  007B14  ECD8  F02F         	call	_inverte_saida	;wreg free
  4408                           
  4409                           ;confws.h: 173: while (AT1==0){ tempo_ms (2000);
  4410  007B18  D028               	goto	l3009
  4411  007B1A                     l2995:
  4412  007B1A  0E07               	movlw	7
  4413  007B1C  6E1B               	movwf	tempo_ms@i+1,c
  4414  007B1E  0ED0               	movlw	208
  4415  007B20  6E1A               	movwf	tempo_ms@i,c
  4416  007B22  ECCD  F02C         	call	_tempo_ms	;wreg free
  4417                           
  4418                           ;confws.h: 174: sputc(227+i);sputc(194);sputc(236);sputc(202);sputc(26);
  4419  007B26  501F               	movf	iniws@i,w,c
  4420  007B28  0FE3               	addlw	227
  4421  007B2A  EC56  F02C         	call	_sputc
  4422  007B2E  0EC2               	movlw	194
  4423  007B30  EC56  F02C         	call	_sputc
  4424  007B34  0EEC               	movlw	236
  4425  007B36  EC56  F02C         	call	_sputc
  4426  007B3A  0ECA               	movlw	202
  4427  007B3C  EC56  F02C         	call	_sputc
  4428  007B40  0E1A               	movlw	26
  4429  007B42  EC56  F02C         	call	_sputc
  4430                           
  4431                           ;confws.h: 175: tempo_ms (1000); inverte_saida(31759);
  4432  007B46  0E03               	movlw	3
  4433  007B48  6E1B               	movwf	tempo_ms@i+1,c
  4434  007B4A  0EE8               	movlw	232
  4435  007B4C  6E1A               	movwf	tempo_ms@i,c
  4436  007B4E  ECCD  F02C         	call	_tempo_ms	;wreg free
  4437  007B52  0E7C               	movlw	124
  4438  007B54  6E15               	movwf	inverte_saida@pino+1,c
  4439  007B56  0E0F               	movlw	15
  4440  007B58  6E14               	movwf	inverte_saida@pino,c
  4441  007B5A  ECD8  F02F         	call	_inverte_saida	;wreg free
  4442                           
  4443                           ;confws.h: 176: inverte_saida(31759);}
  4444  007B5E  0E7C               	movlw	124
  4445  007B60  6E15               	movwf	inverte_saida@pino+1,c
  4446  007B62  0E0F               	movlw	15
  4447  007B64  6E14               	movwf	inverte_saida@pino,c
  4448  007B66  ECD8  F02F         	call	_inverte_saida	;wreg free
  4449  007B6A                     l3009:
  4450  007B6A  5039               	movf	_AT1+1,w,c
  4451  007B6C  1038               	iorwf	_AT1,w,c
  4452  007B6E  B4D8               	btfsc	status,2,c
  4453  007B70  D7D4               	goto	l2995
  4454                           
  4455                           ;confws.h: 177: AT1=0;--i;
  4456  007B72  0E00               	movlw	0
  4457  007B74  6E39               	movwf	_AT1+1,c
  4458  007B76  0E00               	movlw	0
  4459  007B78  6E38               	movwf	_AT1,c
  4460  007B7A  061F               	decf	iniws@i,f,c
  4461                           
  4462                           ;confws.h: 179: sputc(210+i);sputc(222);sputc(210);sputc(220);sputc(64);swputc(rede[0]);
  4463  007B7C  501F               	movf	iniws@i,w,c
  4464  007B7E  0FD2               	addlw	210
  4465  007B80  EC56  F02C         	call	_sputc
  4466  007B84  0EDE               	movlw	222
  4467  007B86  EC56  F02C         	call	_sputc
  4468  007B8A  0ED2               	movlw	210
  4469  007B8C  EC56  F02C         	call	_sputc
  4470  007B90  0EDC               	movlw	220
  4471  007B92  EC56  F02C         	call	_sputc
  4472  007B96  0E40               	movlw	64
  4473  007B98  EC56  F02C         	call	_sputc
  4474  007B9C  0E69               	movlw	low _rede
  4475  007B9E  6EF6               	movwf	tblptrl,c
  4476  007BA0  0E7E               	movlw	high _rede
  4477  007BA2  6EF7               	movwf	tblptrh,c
  4478  007BA4  0008               	tblrd		*
  4479  007BA6  50F5               	movf	tablat,w,c
  4480  007BA8  EC23  F02C         	call	_swputc
  4481                           
  4482                           ;confws.h: 180: swputc(rede[1]);swputc(rede[2]);swputc(rede[3]);swputc(rede[4]);swputc(r
      +                          ede[5]);
  4483  007BAC  0E6A               	movlw	low (_rede+1)
  4484  007BAE  6EF6               	movwf	tblptrl,c
  4485  007BB0  0E7E               	movlw	high (_rede+1)
  4486  007BB2  6EF7               	movwf	tblptrh,c
  4487  007BB4  0008               	tblrd		*
  4488  007BB6  50F5               	movf	tablat,w,c
  4489  007BB8  EC23  F02C         	call	_swputc
  4490  007BBC  0E6B               	movlw	low (_rede+2)
  4491  007BBE  6EF6               	movwf	tblptrl,c
  4492  007BC0  0E7E               	movlw	high (_rede+2)
  4493  007BC2  6EF7               	movwf	tblptrh,c
  4494  007BC4  0008               	tblrd		*
  4495  007BC6  50F5               	movf	tablat,w,c
  4496  007BC8  EC23  F02C         	call	_swputc
  4497  007BCC  0E6C               	movlw	low (_rede+3)
  4498  007BCE  6EF6               	movwf	tblptrl,c
  4499  007BD0  0E7E               	movlw	high (_rede+3)
  4500  007BD2  6EF7               	movwf	tblptrh,c
  4501  007BD4  0008               	tblrd		*
  4502  007BD6  50F5               	movf	tablat,w,c
  4503  007BD8  EC23  F02C         	call	_swputc
  4504  007BDC  0E6D               	movlw	low (_rede+4)
  4505  007BDE  6EF6               	movwf	tblptrl,c
  4506  007BE0  0E7E               	movlw	high (_rede+4)
  4507  007BE2  6EF7               	movwf	tblptrh,c
  4508  007BE4  0008               	tblrd		*
  4509  007BE6  50F5               	movf	tablat,w,c
  4510  007BE8  EC23  F02C         	call	_swputc
  4511  007BEC  0E6E               	movlw	low (_rede+5)
  4512  007BEE  6EF6               	movwf	tblptrl,c
  4513  007BF0  0E7E               	movlw	high (_rede+5)
  4514  007BF2  6EF7               	movwf	tblptrh,c
  4515  007BF4  0008               	tblrd		*
  4516  007BF6  50F5               	movf	tablat,w,c
  4517  007BF8  EC23  F02C         	call	_swputc
  4518                           
  4519                           ;confws.h: 181: swputc(rede[6]);swputc(rede[7]);swputc(rede[8]);swputc(rede[9]);swputc(r
      +                          ede[10]);
  4520  007BFC  0E6F               	movlw	low (_rede+6)
  4521  007BFE  6EF6               	movwf	tblptrl,c
  4522  007C00  0E7E               	movlw	high (_rede+6)
  4523  007C02  6EF7               	movwf	tblptrh,c
  4524  007C04  0008               	tblrd		*
  4525  007C06  50F5               	movf	tablat,w,c
  4526  007C08  EC23  F02C         	call	_swputc
  4527  007C0C  0E70               	movlw	low (_rede+7)
  4528  007C0E  6EF6               	movwf	tblptrl,c
  4529  007C10  0E7E               	movlw	high (_rede+7)
  4530  007C12  6EF7               	movwf	tblptrh,c
  4531  007C14  0008               	tblrd		*
  4532  007C16  50F5               	movf	tablat,w,c
  4533  007C18  EC23  F02C         	call	_swputc
  4534  007C1C  0E71               	movlw	low (_rede+8)
  4535  007C1E  6EF6               	movwf	tblptrl,c
  4536  007C20  0E7E               	movlw	high (_rede+8)
  4537  007C22  6EF7               	movwf	tblptrh,c
  4538  007C24  0008               	tblrd		*
  4539  007C26  50F5               	movf	tablat,w,c
  4540  007C28  EC23  F02C         	call	_swputc
  4541  007C2C  0E72               	movlw	low (_rede+9)
  4542  007C2E  6EF6               	movwf	tblptrl,c
  4543  007C30  0E7E               	movlw	high (_rede+9)
  4544  007C32  6EF7               	movwf	tblptrh,c
  4545  007C34  0008               	tblrd		*
  4546  007C36  50F5               	movf	tablat,w,c
  4547  007C38  EC23  F02C         	call	_swputc
  4548  007C3C  0E73               	movlw	low (_rede+10)
  4549  007C3E  6EF6               	movwf	tblptrl,c
  4550  007C40  0E7E               	movlw	high (_rede+10)
  4551  007C42  6EF7               	movwf	tblptrh,c
  4552  007C44  0008               	tblrd		*
  4553  007C46  50F5               	movf	tablat,w,c
  4554  007C48  EC23  F02C         	call	_swputc
  4555                           
  4556                           ;confws.h: 182: swputc(rede[11]);swputc(rede[12]);swputc(rede[13]);swputc(rede[14]);swpu
      +                          tc(rede[15]);
  4557  007C4C  0E74               	movlw	low (_rede+11)
  4558  007C4E  6EF6               	movwf	tblptrl,c
  4559  007C50  0E7E               	movlw	high (_rede+11)
  4560  007C52  6EF7               	movwf	tblptrh,c
  4561  007C54  0008               	tblrd		*
  4562  007C56  50F5               	movf	tablat,w,c
  4563  007C58  EC23  F02C         	call	_swputc
  4564  007C5C  0E75               	movlw	low (_rede+12)
  4565  007C5E  6EF6               	movwf	tblptrl,c
  4566  007C60  0E7E               	movlw	high (_rede+12)
  4567  007C62  6EF7               	movwf	tblptrh,c
  4568  007C64  0008               	tblrd		*
  4569  007C66  50F5               	movf	tablat,w,c
  4570  007C68  EC23  F02C         	call	_swputc
  4571  007C6C  0E76               	movlw	low (_rede+13)
  4572  007C6E  6EF6               	movwf	tblptrl,c
  4573  007C70  0E7E               	movlw	high (_rede+13)
  4574  007C72  6EF7               	movwf	tblptrh,c
  4575  007C74  0008               	tblrd		*
  4576  007C76  50F5               	movf	tablat,w,c
  4577  007C78  EC23  F02C         	call	_swputc
  4578  007C7C  0E77               	movlw	low (_rede+14)
  4579  007C7E  6EF6               	movwf	tblptrl,c
  4580  007C80  0E7E               	movlw	high (_rede+14)
  4581  007C82  6EF7               	movwf	tblptrh,c
  4582  007C84  0008               	tblrd		*
  4583  007C86  50F5               	movf	tablat,w,c
  4584  007C88  EC23  F02C         	call	_swputc
  4585  007C8C  0E78               	movlw	low (_rede+15)
  4586  007C8E  6EF6               	movwf	tblptrl,c
  4587  007C90  0E7E               	movlw	high (_rede+15)
  4588  007C92  6EF7               	movwf	tblptrh,c
  4589  007C94  0008               	tblrd		*
  4590  007C96  50F5               	movf	tablat,w,c
  4591  007C98  EC23  F02C         	call	_swputc
  4592                           
  4593                           ;confws.h: 183: swputc(rede[16]);swputc(rede[17]);sputc(26);inverte_saida(31759);
  4594  007C9C  0E79               	movlw	low (_rede+16)
  4595  007C9E  6EF6               	movwf	tblptrl,c
  4596  007CA0  0E7E               	movlw	high (_rede+16)
  4597  007CA2  6EF7               	movwf	tblptrh,c
  4598  007CA4  0008               	tblrd		*
  4599  007CA6  50F5               	movf	tablat,w,c
  4600  007CA8  EC23  F02C         	call	_swputc
  4601  007CAC  0E7A               	movlw	low (_rede+17)
  4602  007CAE  6EF6               	movwf	tblptrl,c
  4603  007CB0  0E7E               	movlw	high (_rede+17)
  4604  007CB2  6EF7               	movwf	tblptrh,c
  4605  007CB4  0008               	tblrd		*
  4606  007CB6  50F5               	movf	tablat,w,c
  4607  007CB8  EC23  F02C         	call	_swputc
  4608  007CBC  0E1A               	movlw	26
  4609  007CBE  EC56  F02C         	call	_sputc
  4610  007CC2  0E7C               	movlw	124
  4611  007CC4  6E15               	movwf	inverte_saida@pino+1,c
  4612  007CC6  0E0F               	movlw	15
  4613  007CC8  6E14               	movwf	inverte_saida@pino,c
  4614  007CCA  ECD8  F02F         	call	_inverte_saida	;wreg free
  4615                           
  4616                           ;confws.h: 184: tempo_ms (4000); inverte_saida(31759);
  4617  007CCE  0E0F               	movlw	15
  4618  007CD0  6E1B               	movwf	tempo_ms@i+1,c
  4619  007CD2  0EA0               	movlw	160
  4620  007CD4  6E1A               	movwf	tempo_ms@i,c
  4621  007CD6  ECCD  F02C         	call	_tempo_ms	;wreg free
  4622  007CDA  0E7C               	movlw	124
  4623  007CDC  6E15               	movwf	inverte_saida@pino+1,c
  4624  007CDE  0E0F               	movlw	15
  4625  007CE0  6E14               	movwf	inverte_saida@pino,c
  4626  007CE2  ECD8  F02F         	call	_inverte_saida	;wreg free
  4627                           
  4628                           ;confws.h: 185: while (AT2==0){ tempo_ms (4000);
  4629  007CE6  D0AF               	goto	l3121
  4630  007CE8                     l3069:
  4631  007CE8  0E0F               	movlw	15
  4632  007CEA  6E1B               	movwf	tempo_ms@i+1,c
  4633  007CEC  0EA0               	movlw	160
  4634  007CEE  6E1A               	movwf	tempo_ms@i,c
  4635  007CF0  ECCD  F02C         	call	_tempo_ms	;wreg free
  4636                           
  4637                           ;confws.h: 186: sputc(210+i);sputc(222);sputc(210);sputc(220);sputc(64);swputc(rede[0]);
  4638  007CF4  501F               	movf	iniws@i,w,c
  4639  007CF6  0FD2               	addlw	210
  4640  007CF8  EC56  F02C         	call	_sputc
  4641  007CFC  0EDE               	movlw	222
  4642  007CFE  EC56  F02C         	call	_sputc
  4643  007D02  0ED2               	movlw	210
  4644  007D04  EC56  F02C         	call	_sputc
  4645  007D08  0EDC               	movlw	220
  4646  007D0A  EC56  F02C         	call	_sputc
  4647  007D0E  0E40               	movlw	64
  4648  007D10  EC56  F02C         	call	_sputc
  4649  007D14  0E69               	movlw	low _rede
  4650  007D16  6EF6               	movwf	tblptrl,c
  4651  007D18  0E7E               	movlw	high _rede
  4652  007D1A  6EF7               	movwf	tblptrh,c
  4653  007D1C  0008               	tblrd		*
  4654  007D1E  50F5               	movf	tablat,w,c
  4655  007D20  EC23  F02C         	call	_swputc
  4656                           
  4657                           ;confws.h: 187: swputc(rede[1]);swputc(rede[2]);swputc(rede[3]);swputc(rede[4]);swputc(r
      +                          ede[5]);
  4658  007D24  0E6A               	movlw	low (_rede+1)
  4659  007D26  6EF6               	movwf	tblptrl,c
  4660  007D28  0E7E               	movlw	high (_rede+1)
  4661  007D2A  6EF7               	movwf	tblptrh,c
  4662  007D2C  0008               	tblrd		*
  4663  007D2E  50F5               	movf	tablat,w,c
  4664  007D30  EC23  F02C         	call	_swputc
  4665  007D34  0E6B               	movlw	low (_rede+2)
  4666  007D36  6EF6               	movwf	tblptrl,c
  4667  007D38  0E7E               	movlw	high (_rede+2)
  4668  007D3A  6EF7               	movwf	tblptrh,c
  4669  007D3C  0008               	tblrd		*
  4670  007D3E  50F5               	movf	tablat,w,c
  4671  007D40  EC23  F02C         	call	_swputc
  4672  007D44  0E6C               	movlw	low (_rede+3)
  4673  007D46  6EF6               	movwf	tblptrl,c
  4674  007D48  0E7E               	movlw	high (_rede+3)
  4675  007D4A  6EF7               	movwf	tblptrh,c
  4676  007D4C  0008               	tblrd		*
  4677  007D4E  50F5               	movf	tablat,w,c
  4678  007D50  EC23  F02C         	call	_swputc
  4679  007D54  0E6D               	movlw	low (_rede+4)
  4680  007D56  6EF6               	movwf	tblptrl,c
  4681  007D58  0E7E               	movlw	high (_rede+4)
  4682  007D5A  6EF7               	movwf	tblptrh,c
  4683  007D5C  0008               	tblrd		*
  4684  007D5E  50F5               	movf	tablat,w,c
  4685  007D60  EC23  F02C         	call	_swputc
  4686  007D64  0E6E               	movlw	low (_rede+5)
  4687  007D66  6EF6               	movwf	tblptrl,c
  4688  007D68  0E7E               	movlw	high (_rede+5)
  4689  007D6A  6EF7               	movwf	tblptrh,c
  4690  007D6C  0008               	tblrd		*
  4691  007D6E  50F5               	movf	tablat,w,c
  4692  007D70  EC23  F02C         	call	_swputc
  4693                           
  4694                           ;confws.h: 188: swputc(rede[6]);swputc(rede[7]);swputc(rede[8]);swputc(rede[9]);swputc(r
      +                          ede[10]);
  4695  007D74  0E6F               	movlw	low (_rede+6)
  4696  007D76  6EF6               	movwf	tblptrl,c
  4697  007D78  0E7E               	movlw	high (_rede+6)
  4698  007D7A  6EF7               	movwf	tblptrh,c
  4699  007D7C  0008               	tblrd		*
  4700  007D7E  50F5               	movf	tablat,w,c
  4701  007D80  EC23  F02C         	call	_swputc
  4702  007D84  0E70               	movlw	low (_rede+7)
  4703  007D86  6EF6               	movwf	tblptrl,c
  4704  007D88  0E7E               	movlw	high (_rede+7)
  4705  007D8A  6EF7               	movwf	tblptrh,c
  4706  007D8C  0008               	tblrd		*
  4707  007D8E  50F5               	movf	tablat,w,c
  4708  007D90  EC23  F02C         	call	_swputc
  4709  007D94  0E71               	movlw	low (_rede+8)
  4710  007D96  6EF6               	movwf	tblptrl,c
  4711  007D98  0E7E               	movlw	high (_rede+8)
  4712  007D9A  6EF7               	movwf	tblptrh,c
  4713  007D9C  0008               	tblrd		*
  4714  007D9E  50F5               	movf	tablat,w,c
  4715  007DA0  EC23  F02C         	call	_swputc
  4716  007DA4  0E72               	movlw	low (_rede+9)
  4717  007DA6  6EF6               	movwf	tblptrl,c
  4718  007DA8  0E7E               	movlw	high (_rede+9)
  4719  007DAA  6EF7               	movwf	tblptrh,c
  4720  007DAC  0008               	tblrd		*
  4721  007DAE  50F5               	movf	tablat,w,c
  4722  007DB0  EC23  F02C         	call	_swputc
  4723  007DB4  0E73               	movlw	low (_rede+10)
  4724  007DB6  6EF6               	movwf	tblptrl,c
  4725  007DB8  0E7E               	movlw	high (_rede+10)
  4726  007DBA  6EF7               	movwf	tblptrh,c
  4727  007DBC  0008               	tblrd		*
  4728  007DBE  50F5               	movf	tablat,w,c
  4729  007DC0  EC23  F02C         	call	_swputc
  4730                           
  4731                           ;confws.h: 189: swputc(rede[11]);swputc(rede[12]);swputc(rede[13]);swputc(rede[14]);swpu
      +                          tc(rede[15]);
  4732  007DC4  0E74               	movlw	low (_rede+11)
  4733  007DC6  6EF6               	movwf	tblptrl,c
  4734  007DC8  0E7E               	movlw	high (_rede+11)
  4735  007DCA  6EF7               	movwf	tblptrh,c
  4736  007DCC  0008               	tblrd		*
  4737  007DCE  50F5               	movf	tablat,w,c
  4738  007DD0  EC23  F02C         	call	_swputc
  4739  007DD4  0E75               	movlw	low (_rede+12)
  4740  007DD6  6EF6               	movwf	tblptrl,c
  4741  007DD8  0E7E               	movlw	high (_rede+12)
  4742  007DDA  6EF7               	movwf	tblptrh,c
  4743  007DDC  0008               	tblrd		*
  4744  007DDE  50F5               	movf	tablat,w,c
  4745  007DE0  EC23  F02C         	call	_swputc
  4746  007DE4  0E76               	movlw	low (_rede+13)
  4747  007DE6  6EF6               	movwf	tblptrl,c
  4748  007DE8  0E7E               	movlw	high (_rede+13)
  4749  007DEA  6EF7               	movwf	tblptrh,c
  4750  007DEC  0008               	tblrd		*
  4751  007DEE  50F5               	movf	tablat,w,c
  4752  007DF0  EC23  F02C         	call	_swputc
  4753  007DF4  0E77               	movlw	low (_rede+14)
  4754  007DF6  6EF6               	movwf	tblptrl,c
  4755  007DF8  0E7E               	movlw	high (_rede+14)
  4756  007DFA  6EF7               	movwf	tblptrh,c
  4757  007DFC  0008               	tblrd		*
  4758  007DFE  50F5               	movf	tablat,w,c
  4759  007E00  EC23  F02C         	call	_swputc
  4760  007E04  0E78               	movlw	low (_rede+15)
  4761  007E06  6EF6               	movwf	tblptrl,c
  4762  007E08  0E7E               	movlw	high (_rede+15)
  4763  007E0A  6EF7               	movwf	tblptrh,c
  4764  007E0C  0008               	tblrd		*
  4765  007E0E  50F5               	movf	tablat,w,c
  4766  007E10  EC23  F02C         	call	_swputc
  4767                           
  4768                           ;confws.h: 190: swputc(rede[16]);swputc(rede[17]);sputc(26);inverte_saida(31759);
  4769  007E14  0E79               	movlw	low (_rede+16)
  4770  007E16  6EF6               	movwf	tblptrl,c
  4771  007E18  0E7E               	movlw	high (_rede+16)
  4772  007E1A  6EF7               	movwf	tblptrh,c
  4773  007E1C  0008               	tblrd		*
  4774  007E1E  50F5               	movf	tablat,w,c
  4775  007E20  EC23  F02C         	call	_swputc
  4776  007E24  0E7A               	movlw	low (_rede+17)
  4777  007E26  6EF6               	movwf	tblptrl,c
  4778  007E28  0E7E               	movlw	high (_rede+17)
  4779  007E2A  6EF7               	movwf	tblptrh,c
  4780  007E2C  0008               	tblrd		*
  4781  007E2E  50F5               	movf	tablat,w,c
  4782  007E30  EC23  F02C         	call	_swputc
  4783  007E34  0E1A               	movlw	26
  4784  007E36  EC56  F02C         	call	_sputc
  4785  007E3A  0E7C               	movlw	124
  4786  007E3C  6E15               	movwf	inverte_saida@pino+1,c
  4787  007E3E  0E0F               	movlw	15
  4788  007E40  6E14               	movwf	inverte_saida@pino,c
  4789  007E42  ECD8  F02F         	call	_inverte_saida	;wreg free
  4790  007E46                     l3121:
  4791  007E46  503B               	movf	_AT2+1,w,c
  4792  007E48  103A               	iorwf	_AT2,w,c
  4793  007E4A  B4D8               	btfsc	status,2,c
  4794  007E4C  D74D               	goto	l3069
  4795                           
  4796                           ;confws.h: 191: }
  4797                           ;confws.h: 192: AT2=0;--i;
  4798  007E4E  0E00               	movlw	0
  4799  007E50  6E3B               	movwf	_AT2+1,c
  4800  007E52  0E00               	movlw	0
  4801  007E54  6E3A               	movwf	_AT2,c
  4802  007E56  061F               	decf	iniws@i,f,c
  4803  007E58  0012               	return	
  4804  007E5A                     __end_of_iniws:
  4805                           	opt stack 0
  4806                           tblptru	equ	0xFF8
  4807                           tblptrh	equ	0xFF7
  4808                           tblptrl	equ	0xFF6
  4809                           tablat	equ	0xFF5
  4810                           prodh	equ	0xFF4
  4811                           prodl	equ	0xFF3
  4812                           postinc0	equ	0xFEE
  4813                           wreg	equ	0xFE8
  4814                           postdec1	equ	0xFE5
  4815                           fsr1l	equ	0xFE1
  4816                           status	equ	0xFD8
  4817                           
  4818 ;; *************** function _tempo_ms *****************
  4819 ;; Defined at:
  4820 ;;		line 291 in file "SanUSB48X.h"
  4821 ;; Parameters:    Size  Location     Type
  4822 ;;  i               2   25[COMRAM] unsigned int 
  4823 ;; Auto vars:     Size  Location     Type
  4824 ;;  k               2   27[COMRAM] unsigned int 
  4825 ;; Return value:  Size  Location     Type
  4826 ;;		None               void
  4827 ;; Registers used:
  4828 ;;		wreg, status,2, status,0, prodl, prodh, cstack
  4829 ;; Tracked objects:
  4830 ;;		On entry : 0/0
  4831 ;;		On exit  : 0/0
  4832 ;;		Unchanged: 0/0
  4833 ;; Data sizes:     COMRAM   BANK0   BANK1   BANK2   BANK3   BANK4   BANK5   BANK6   BANK7
  4834 ;;      Params:         2       0       0       0       0       0       0       0       0
  4835 ;;      Locals:         2       0       0       0       0       0       0       0       0
  4836 ;;      Temps:          0       0       0       0       0       0       0       0       0
  4837 ;;      Totals:         4       0       0       0       0       0       0       0       0
  4838 ;;Total ram usage:        4 bytes
  4839 ;; Hardware stack levels used:    1
  4840 ;; Hardware stack levels required when called:    3
  4841 ;; This function calls:
  4842 ;;		_Delay1KTCYx
  4843 ;;		___wmul
  4844 ;; This function is called by:
  4845 ;;		_le_AD10bits
  4846 ;;		_iniws
  4847 ;;		_main
  4848 ;;		_le_AD8bits
  4849 ;; This function uses a non-reentrant model
  4850 ;;
  4851                           
  4852                           	psect	text8
  4853  00599A                     __ptext8:
  4854                           	opt stack 0
  4855  00599A                     _tempo_ms:
  4856                           	opt stack 27
  4857                           
  4858                           ;SanUSB48X.h: 293: EEADR =REG+0B11111100+1;
  4859                           
  4860                           ;incstack = 0
  4861  00599A  504B               	movf	_REG,w,c
  4862  00599C  0FFD               	addlw	253
  4863  00599E  6EA9               	movwf	4009,c	;volatile
  4864                           
  4865                           ;SanUSB48X.h: 294: EECON1=REG+EEADR & 0B00001011;
  4866  0059A0  504B               	movf	_REG,w,c
  4867  0059A2  24A9               	addwf	4009,w,c	;volatile
  4868  0059A4  0B0B               	andlw	11
  4869  0059A6  6EA6               	movwf	4006,c	;volatile
  4870  0059A8                     l286:
  4871  0059A8  66A8               	tstfsz	4008,c	;volatile
  4872  0059AA  D7FE               	goto	l286
  4873                           
  4874                           ;SanUSB48X.h: 296: for(k=0;k<12*i;k++) { Delay1KTCYx(1);}
  4875  0059AC  0E00               	movlw	0
  4876  0059AE  6E1D               	movwf	tempo_ms@k+1,c
  4877  0059B0  0E00               	movlw	0
  4878  0059B2  6E1C               	movwf	tempo_ms@k,c
  4879  0059B4  D005               	goto	l1591
  4880  0059B6                     l1587:
  4881  0059B6  0E01               	movlw	1
  4882  0059B8  EC34  F02C         	call	_Delay1KTCYx
  4883  0059BC  4A1C               	infsnz	tempo_ms@k,f,c
  4884  0059BE  2A1D               	incf	tempo_ms@k+1,f,c
  4885  0059C0                     l1591:
  4886  0059C0  C01A  F014         	movff	tempo_ms@i,___wmul@multiplier
  4887  0059C4  C01B  F015         	movff	tempo_ms@i+1,___wmul@multiplier+1
  4888  0059C8  0E00               	movlw	0
  4889  0059CA  6E17               	movwf	___wmul@multiplicand+1,c
  4890  0059CC  0E0C               	movlw	12
  4891  0059CE  6E16               	movwf	___wmul@multiplicand,c
  4892  0059D0  EC6C  F02C         	call	___wmul	;wreg free
  4893  0059D4  5014               	movf	?___wmul,w,c
  4894  0059D6  5C1C               	subwf	tempo_ms@k,w,c
  4895  0059D8  5015               	movf	?___wmul+1,w,c
  4896  0059DA  581D               	subwfb	tempo_ms@k+1,w,c
  4897  0059DC  B0D8               	btfsc	status,0,c
  4898  0059DE  0012               	return	
  4899  0059E0  D7EA               	goto	l1587
  4900  0059E2                     __end_of_tempo_ms:
  4901                           	opt stack 0
  4902                           tblptru	equ	0xFF8
  4903                           tblptrh	equ	0xFF7
  4904                           tblptrl	equ	0xFF6
  4905                           tablat	equ	0xFF5
  4906                           prodh	equ	0xFF4
  4907                           prodl	equ	0xFF3
  4908                           postinc0	equ	0xFEE
  4909                           wreg	equ	0xFE8
  4910                           postdec1	equ	0xFE5
  4911                           fsr1l	equ	0xFE1
  4912                           status	equ	0xFD8
  4913                           
  4914 ;; *************** function ___wmul *****************
  4915 ;; Defined at:
  4916 ;;		line 3 in file "C:\Program Files (x86)\Microchip\xc8\v1.31\sources\common\wmul.c"
  4917 ;; Parameters:    Size  Location     Type
  4918 ;;  multiplier      2   19[COMRAM] unsigned int 
  4919 ;;  multiplicand    2   21[COMRAM] unsigned int 
  4920 ;; Auto vars:     Size  Location     Type
  4921 ;;  product         2   23[COMRAM] unsigned int 
  4922 ;; Return value:  Size  Location     Type
  4923 ;;                  2   19[COMRAM] unsigned int 
  4924 ;; Registers used:
  4925 ;;		wreg, status,2, status,0, prodl, prodh
  4926 ;; Tracked objects:
  4927 ;;		On entry : 0/0
  4928 ;;		On exit  : 0/0
  4929 ;;		Unchanged: 0/0
  4930 ;; Data sizes:     COMRAM   BANK0   BANK1   BANK2   BANK3   BANK4   BANK5   BANK6   BANK7
  4931 ;;      Params:         4       0       0       0       0       0       0       0       0
  4932 ;;      Locals:         2       0       0       0       0       0       0       0       0
  4933 ;;      Temps:          0       0       0       0       0       0       0       0       0
  4934 ;;      Totals:         6       0       0       0       0       0       0       0       0
  4935 ;;Total ram usage:        6 bytes
  4936 ;; Hardware stack levels used:    1
  4937 ;; Hardware stack levels required when called:    2
  4938 ;; This function calls:
  4939 ;;		Nothing
  4940 ;; This function is called by:
  4941 ;;		_tempo_ms
  4942 ;;		_tempo_us
  4943 ;;		_timer0_ms
  4944 ;;		_SetaPWM1
  4945 ;;		_SetaPWM2
  4946 ;; This function uses a non-reentrant model
  4947 ;;
  4948                           
  4949                           	psect	text9
  4950  0058D8                     __ptext9:
  4951                           	opt stack 0
  4952  0058D8                     ___wmul:
  4953                           	opt stack 27
  4954                           
  4955                           ;incstack = 0
  4956  0058D8  5014               	movf	___wmul@multiplier,w,c
  4957  0058DA  0216               	mulwf	___wmul@multiplicand,c
  4958  0058DC  CFF3 F018          	movff	prodl,___wmul@product
  4959  0058E0  CFF4 F019          	movff	prodh,___wmul@product+1
  4960  0058E4  5014               	movf	___wmul@multiplier,w,c
  4961  0058E6  0217               	mulwf	___wmul@multiplicand+1,c
  4962  0058E8  CFF3 FFF4          	movff	prodl,prodh
  4963  0058EC  6AF3               	clrf	prodl,c
  4964  0058EE  50F3               	movf	prodl,w,c
  4965  0058F0  2618               	addwf	___wmul@product,f,c
  4966  0058F2  50F4               	movf	prodh,w,c
  4967  0058F4  2219               	addwfc	___wmul@product+1,f,c
  4968  0058F6  5015               	movf	___wmul@multiplier+1,w,c
  4969  0058F8  0216               	mulwf	___wmul@multiplicand,c
  4970  0058FA  CFF3 FFF4          	movff	prodl,prodh
  4971  0058FE  6AF3               	clrf	prodl,c
  4972  005900  50F3               	movf	prodl,w,c
  4973  005902  2618               	addwf	___wmul@product,f,c
  4974  005904  50F4               	movf	prodh,w,c
  4975  005906  2219               	addwfc	___wmul@product+1,f,c
  4976  005908  C018  F014         	movff	___wmul@product,?___wmul
  4977  00590C  C019  F015         	movff	___wmul@product+1,?___wmul+1
  4978  005910  0012               	return	
  4979  005912                     __end_of___wmul:
  4980                           	opt stack 0
  4981                           tblptru	equ	0xFF8
  4982                           tblptrh	equ	0xFF7
  4983                           tblptrl	equ	0xFF6
  4984                           tablat	equ	0xFF5
  4985                           prodh	equ	0xFF4
  4986                           prodl	equ	0xFF3
  4987                           postinc0	equ	0xFEE
  4988                           wreg	equ	0xFE8
  4989                           postdec1	equ	0xFE5
  4990                           fsr1l	equ	0xFE1
  4991                           status	equ	0xFD8
  4992                           
  4993 ;; *************** function _Delay1KTCYx *****************
  4994 ;; Defined at:
  4995 ;;		line 8 in file "C:\Program Files (x86)\Microchip\xc8\v1.31\sources\pic18\d1ktcyx.c"
  4996 ;; Parameters:    Size  Location     Type
  4997 ;;  unit            1    wreg     unsigned char 
  4998 ;; Auto vars:     Size  Location     Type
  4999 ;;  unit            1   19[COMRAM] unsigned char 
  5000 ;; Return value:  Size  Location     Type
  5001 ;;		None               void
  5002 ;; Registers used:
  5003 ;;		wreg
  5004 ;; Tracked objects:
  5005 ;;		On entry : 0/0
  5006 ;;		On exit  : 0/0
  5007 ;;		Unchanged: 0/0
  5008 ;; Data sizes:     COMRAM   BANK0   BANK1   BANK2   BANK3   BANK4   BANK5   BANK6   BANK7
  5009 ;;      Params:         0       0       0       0       0       0       0       0       0
  5010 ;;      Locals:         1       0       0       0       0       0       0       0       0
  5011 ;;      Temps:          0       0       0       0       0       0       0       0       0
  5012 ;;      Totals:         1       0       0       0       0       0       0       0       0
  5013 ;;Total ram usage:        1 bytes
  5014 ;; Hardware stack levels used:    1
  5015 ;; Hardware stack levels required when called:    2
  5016 ;; This function calls:
  5017 ;;		Nothing
  5018 ;; This function is called by:
  5019 ;;		_tempo_ms
  5020 ;; This function uses a non-reentrant model
  5021 ;;
  5022                           
  5023                           	psect	text10
  5024  005868                     __ptext10:
  5025                           	opt stack 0
  5026  005868                     _Delay1KTCYx:
  5027                           	opt stack 27
  5028                           
  5029                           ;incstack = 0
  5030                           ;Delay1KTCYx@unit stored from wreg
  5031  005868  CFE8 F014          	movff	wreg,Delay1KTCYx@unit
  5032  00586C                     l795:
  5033  00586C  0EFA               	movlw	250
  5034  00586E                     u1117:
  5035  00586E  F000               	nop	
  5036  005870  2EE8               	decfsz	wreg,f,c
  5037  005872  D7FD               	goto	u1117
  5038  005874  2E14               	decfsz	Delay1KTCYx@unit,f,c
  5039  005876  D7FA               	goto	l795
  5040  005878  0012               	return	
  5041  00587A                     __end_of_Delay1KTCYx:
  5042                           	opt stack 0
  5043                           tblptru	equ	0xFF8
  5044                           tblptrh	equ	0xFF7
  5045                           tblptrl	equ	0xFF6
  5046                           tablat	equ	0xFF5
  5047                           prodh	equ	0xFF4
  5048                           prodl	equ	0xFF3
  5049                           postinc0	equ	0xFEE
  5050                           wreg	equ	0xFE8
  5051                           postdec1	equ	0xFE5
  5052                           fsr1l	equ	0xFE1
  5053                           status	equ	0xFD8
  5054                           
  5055 ;; *************** function _swputc *****************
  5056 ;; Defined at:
  5057 ;;		line 461 in file "SanUSB48X.h"
  5058 ;; Parameters:    Size  Location     Type
  5059 ;;  c               1    wreg     unsigned char 
  5060 ;; Auto vars:     Size  Location     Type
  5061 ;;  c               1   19[COMRAM] unsigned char 
  5062 ;; Return value:  Size  Location     Type
  5063 ;;		None               void
  5064 ;; Registers used:
  5065 ;;		wreg, status,2, status,0
  5066 ;; Tracked objects:
  5067 ;;		On entry : 0/0
  5068 ;;		On exit  : 0/0
  5069 ;;		Unchanged: 0/0
  5070 ;; Data sizes:     COMRAM   BANK0   BANK1   BANK2   BANK3   BANK4   BANK5   BANK6   BANK7
  5071 ;;      Params:         0       0       0       0       0       0       0       0       0
  5072 ;;      Locals:         1       0       0       0       0       0       0       0       0
  5073 ;;      Temps:          0       0       0       0       0       0       0       0       0
  5074 ;;      Totals:         1       0       0       0       0       0       0       0       0
  5075 ;;Total ram usage:        1 bytes
  5076 ;; Hardware stack levels used:    1
  5077 ;; Hardware stack levels required when called:    2
  5078 ;; This function calls:
  5079 ;;		Nothing
  5080 ;; This function is called by:
  5081 ;;		_sendnum
  5082 ;;		_iniws
  5083 ;;		_sendrw
  5084 ;;		_sendsw
  5085 ;; This function uses a non-reentrant model
  5086 ;;
  5087                           
  5088                           	psect	text11
  5089  005846                     __ptext11:
  5090                           	opt stack 0
  5091  005846                     _swputc:
  5092                           	opt stack 27
  5093                           
  5094                           ;incstack = 0
  5095                           ;swputc@c stored from wreg
  5096  005846  CFE8 F014          	movff	wreg,swputc@c
  5097  00584A                     l391:
  5098  00584A  A2AC               	btfss	4012,1,c	;volatile
  5099  00584C  D7FE               	goto	l391
  5100                           
  5101                           ;SanUSB48X.h: 464: TXREG=REG+c;
  5102  00584E  504B               	movf	_REG,w,c
  5103  005850  2414               	addwf	swputc@c,w,c
  5104  005852  6EAD               	movwf	4013,c	;volatile
  5105  005854  0012               	return	
  5106  005856                     __end_of_swputc:
  5107                           	opt stack 0
  5108                           tblptru	equ	0xFF8
  5109                           tblptrh	equ	0xFF7
  5110                           tblptrl	equ	0xFF6
  5111                           tablat	equ	0xFF5
  5112                           prodh	equ	0xFF4
  5113                           prodl	equ	0xFF3
  5114                           postinc0	equ	0xFEE
  5115                           wreg	equ	0xFE8
  5116                           postdec1	equ	0xFE5
  5117                           fsr1l	equ	0xFE1
  5118                           status	equ	0xFD8
  5119                           
  5120 ;; *************** function _sputc *****************
  5121 ;; Defined at:
  5122 ;;		line 466 in file "SanUSB48X.h"
  5123 ;; Parameters:    Size  Location     Type
  5124 ;;  c               1    wreg     unsigned char 
  5125 ;; Auto vars:     Size  Location     Type
  5126 ;;  c               1   21[COMRAM] unsigned char 
  5127 ;; Return value:  Size  Location     Type
  5128 ;;		None               void
  5129 ;; Registers used:
  5130 ;;		wreg, status,2, status,0
  5131 ;; Tracked objects:
  5132 ;;		On entry : 0/0
  5133 ;;		On exit  : 0/0
  5134 ;;		Unchanged: 0/0
  5135 ;; Data sizes:     COMRAM   BANK0   BANK1   BANK2   BANK3   BANK4   BANK5   BANK6   BANK7
  5136 ;;      Params:         0       0       0       0       0       0       0       0       0
  5137 ;;      Locals:         1       0       0       0       0       0       0       0       0
  5138 ;;      Temps:          2       0       0       0       0       0       0       0       0
  5139 ;;      Totals:         3       0       0       0       0       0       0       0       0
  5140 ;;Total ram usage:        3 bytes
  5141 ;; Hardware stack levels used:    1
  5142 ;; Hardware stack levels required when called:    2
  5143 ;; This function calls:
  5144 ;;		Nothing
  5145 ;; This function is called by:
  5146 ;;		_sendr
  5147 ;;		_iniws
  5148 ;;		_main
  5149 ;;		_sends
  5150 ;; This function uses a non-reentrant model
  5151 ;;
  5152                           
  5153                           	psect	text12
  5154  0058AC                     __ptext12:
  5155                           	opt stack 0
  5156  0058AC                     _sputc:
  5157                           	opt stack 28
  5158                           
  5159                           ;incstack = 0
  5160                           ;sputc@c stored from wreg
  5161  0058AC  CFE8 F016          	movff	wreg,sputc@c
  5162  0058B0                     l397:
  5163  0058B0  A2AC               	btfss	4012,1,c	;volatile
  5164  0058B2  D7FE               	goto	l397
  5165                           
  5166                           ;SanUSB48X.h: 469: TXREG=(c>>BAUDCONbits.BRG16)+REG;
  5167  0058B4  A6B8               	btfss	4024,3,c	;volatile
  5168  0058B6  D003               	goto	u50
  5169  0058B8  6A14               	clrf	??_sputc& (0+255),c
  5170  0058BA  2A14               	incf	??_sputc& (0+255),f,c
  5171  0058BC  D001               	goto	u58
  5172  0058BE                     u50:
  5173  0058BE  6A14               	clrf	??_sputc& (0+255),c
  5174  0058C0                     u58:
  5175  0058C0  C016  F015         	movff	sputc@c,??_sputc+1
  5176  0058C4  2A14               	incf	??_sputc,f,c
  5177  0058C6  D002               	goto	u64
  5178  0058C8                     u65:
  5179  0058C8  90D8               	bcf	status,0,c
  5180  0058CA  3215               	rrcf	??_sputc+1,f,c
  5181  0058CC                     u64:
  5182  0058CC  2E14               	decfsz	??_sputc,f,c
  5183  0058CE  D7FC               	goto	u65
  5184  0058D0  5015               	movf	??_sputc+1,w,c
  5185  0058D2  244B               	addwf	_REG,w,c
  5186  0058D4  6EAD               	movwf	4013,c	;volatile
  5187  0058D6  0012               	return	
  5188  0058D8                     __end_of_sputc:
  5189                           	opt stack 0
  5190                           tblptru	equ	0xFF8
  5191                           tblptrh	equ	0xFF7
  5192                           tblptrl	equ	0xFF6
  5193                           tablat	equ	0xFF5
  5194                           prodh	equ	0xFF4
  5195                           prodl	equ	0xFF3
  5196                           postinc0	equ	0xFEE
  5197                           wreg	equ	0xFE8
  5198                           postdec1	equ	0xFE5
  5199                           fsr1l	equ	0xFE1
  5200                           status	equ	0xFD8
  5201                           
  5202 ;; *************** function _inverte_saida *****************
  5203 ;; Defined at:
  5204 ;;		line 229 in file "SanUSB48X.h"
  5205 ;; Parameters:    Size  Location     Type
  5206 ;;  pino            2   19[COMRAM] unsigned int 
  5207 ;; Auto vars:     Size  Location     Type
  5208 ;;		None
  5209 ;; Return value:  Size  Location     Type
  5210 ;;		None               void
  5211 ;; Registers used:
  5212 ;;		wreg, status,2, status,0
  5213 ;; Tracked objects:
  5214 ;;		On entry : 0/0
  5215 ;;		On exit  : 0/0
  5216 ;;		Unchanged: 0/0
  5217 ;; Data sizes:     COMRAM   BANK0   BANK1   BANK2   BANK3   BANK4   BANK5   BANK6   BANK7
  5218 ;;      Params:         2       0       0       0       0       0       0       0       0
  5219 ;;      Locals:         0       0       0       0       0       0       0       0       0
  5220 ;;      Temps:          2       0       0       0       0       0       0       0       0
  5221 ;;      Totals:         4       0       0       0       0       0       0       0       0
  5222 ;;Total ram usage:        4 bytes
  5223 ;; Hardware stack levels used:    1
  5224 ;; Hardware stack levels required when called:    2
  5225 ;; This function calls:
  5226 ;;		Nothing
  5227 ;; This function is called by:
  5228 ;;		_iniws
  5229 ;; This function uses a non-reentrant model
  5230 ;;
  5231                           
  5232                           	psect	text13
  5233  005FB0                     __ptext13:
  5234                           	opt stack 0
  5235  005FB0                     _inverte_saida:
  5236                           	opt stack 27
  5237                           
  5238                           ;SanUSB48X.h: 231: switch(pino){
  5239                           
  5240                           ;incstack = 0
  5241  005FB0  D03C               	goto	l1577
  5242  005FB2                     l232:
  5243  005FB2  9092               	bcf	3986,0,c	;volatile
  5244  005FB4  7080               	btg	3968,0,c	;volatile
  5245  005FB6  D07E               	goto	l253
  5246  005FB8                     l234:
  5247  005FB8  9292               	bcf	3986,1,c	;volatile
  5248  005FBA  7280               	btg	3968,1,c	;volatile
  5249  005FBC  D07B               	goto	l253
  5250  005FBE                     l235:
  5251  005FBE  9492               	bcf	3986,2,c	;volatile
  5252  005FC0  7480               	btg	3968,2,c	;volatile
  5253  005FC2  D078               	goto	l253
  5254  005FC4                     l236:
  5255  005FC4  9692               	bcf	3986,3,c	;volatile
  5256  005FC6  7680               	btg	3968,3,c	;volatile
  5257  005FC8  D075               	goto	l253
  5258  005FCA                     l237:
  5259  005FCA  9892               	bcf	3986,4,c	;volatile
  5260  005FCC  7880               	btg	3968,4,c	;volatile
  5261  005FCE  D072               	goto	l253
  5262  005FD0                     l238:
  5263  005FD0  9A92               	bcf	3986,5,c	;volatile
  5264  005FD2  7A80               	btg	3968,5,c	;volatile
  5265  005FD4  D06F               	goto	l253
  5266  005FD6                     l239:
  5267  005FD6  9093               	bcf	3987,0,c	;volatile
  5268  005FD8  7081               	btg	3969,0,c	;volatile
  5269  005FDA  D06C               	goto	l253
  5270  005FDC                     l240:
  5271  005FDC  9293               	bcf	3987,1,c	;volatile
  5272  005FDE  7281               	btg	3969,1,c	;volatile
  5273  005FE0  D069               	goto	l253
  5274  005FE2                     l241:
  5275  005FE2  9493               	bcf	3987,2,c	;volatile
  5276  005FE4  7481               	btg	3969,2,c	;volatile
  5277  005FE6  D066               	goto	l253
  5278  005FE8                     l242:
  5279  005FE8  9693               	bcf	3987,3,c	;volatile
  5280  005FEA  7681               	btg	3969,3,c	;volatile
  5281  005FEC  D063               	goto	l253
  5282  005FEE                     l243:
  5283  005FEE  9893               	bcf	3987,4,c	;volatile
  5284  005FF0  7881               	btg	3969,4,c	;volatile
  5285  005FF2  D060               	goto	l253
  5286  005FF4                     l244:
  5287  005FF4  9A93               	bcf	3987,5,c	;volatile
  5288  005FF6  7A81               	btg	3969,5,c	;volatile
  5289  005FF8  D05D               	goto	l253
  5290  005FFA                     l245:
  5291  005FFA  9C93               	bcf	3987,6,c	;volatile
  5292  005FFC  7C81               	btg	3969,6,c	;volatile
  5293  005FFE  D05A               	goto	l253
  5294  006000                     l246:
  5295  006000  9E93               	bcf	3987,7,c	;volatile
  5296  006002  7E81               	btg	3969,7,c	;volatile
  5297  006004  D057               	goto	l253
  5298  006006                     l247:
  5299  006006  9094               	bcf	3988,0,c	;volatile
  5300  006008  7082               	btg	3970,0,c	;volatile
  5301  00600A  D054               	goto	l253
  5302  00600C                     l248:
  5303  00600C  9294               	bcf	3988,1,c	;volatile
  5304  00600E  7282               	btg	3970,1,c	;volatile
  5305  006010  D051               	goto	l253
  5306  006012                     l249:
  5307  006012  9494               	bcf	3988,2,c	;volatile
  5308  006014  7482               	btg	3970,2,c	;volatile
  5309  006016  D04E               	goto	l253
  5310  006018                     l250:
  5311  006018  9C94               	bcf	3988,6,c	;volatile
  5312  00601A  7C82               	btg	3970,6,c	;volatile
  5313  00601C  D04B               	goto	l253
  5314  00601E                     l251:
  5315  00601E  9E94               	bcf	3988,7,c	;volatile
  5316  006020  7E82               	btg	3970,7,c	;volatile
  5317  006022  D048               	goto	l253
  5318  006024                     l252:
  5319  006024  9E95               	bcf	3989,7,c	;volatile
  5320  006026  7E83               	btg	3971,7,c	;volatile
  5321  006028  D045               	goto	l253
  5322  00602A                     l1577:
  5323  00602A  C014  F016         	movff	inverte_saida@pino,??_inverte_saida
  5324  00602E  C015  F017         	movff	inverte_saida@pino+1,??_inverte_saida+1
  5325                           
  5326                           ; Switch on 2 bytes has been partitioned into a top level switch of size 1, and 1 sub-sw
      +                          itches
  5327                           ; Switch size 1, requested type "space"
  5328                           ; Number of cases is 1, Range of values is 124 to 124
  5329                           ; switch strategies available:
  5330                           ; Name         Instructions Cycles
  5331                           ; simple_byte            4     3 (average)
  5332                           ;	Chosen strategy is simple_byte
  5333  006032  5017               	movf	??_inverte_saida+1,w,c
  5334  006034  0A7C               	xorlw	124	; case 124
  5335  006036  A4D8               	btfss	status,2,c
  5336  006038  D03D               	goto	l253
  5337                           
  5338                           ; Switch size 1, requested type "space"
  5339                           ; Number of cases is 20, Range of values is 0 to 31
  5340                           ; switch strategies available:
  5341                           ; Name         Instructions Cycles
  5342                           ; simple_byte           61    31 (average)
  5343                           ;	Chosen strategy is simple_byte
  5344  00603A  5016               	movf	??_inverte_saida,w,c
  5345  00603C  0A00               	xorlw	0	; case 0
  5346  00603E  B4D8               	btfsc	status,2,c
  5347  006040  D7B8               	goto	l232
  5348  006042  0A01               	xorlw	1	; case 1
  5349  006044  B4D8               	btfsc	status,2,c
  5350  006046  D7B8               	goto	l234
  5351  006048  0A03               	xorlw	3	; case 2
  5352  00604A  B4D8               	btfsc	status,2,c
  5353  00604C  D7B8               	goto	l235
  5354  00604E  0A01               	xorlw	1	; case 3
  5355  006050  B4D8               	btfsc	status,2,c
  5356  006052  D7B8               	goto	l236
  5357  006054  0A07               	xorlw	7	; case 4
  5358  006056  B4D8               	btfsc	status,2,c
  5359  006058  D7B8               	goto	l237
  5360  00605A  0A01               	xorlw	1	; case 5
  5361  00605C  B4D8               	btfsc	status,2,c
  5362  00605E  D7B8               	goto	l238
  5363  006060  0A0D               	xorlw	13	; case 8
  5364  006062  B4D8               	btfsc	status,2,c
  5365  006064  D7B8               	goto	l239
  5366  006066  0A01               	xorlw	1	; case 9
  5367  006068  B4D8               	btfsc	status,2,c
  5368  00606A  D7B8               	goto	l240
  5369  00606C  0A03               	xorlw	3	; case 10
  5370  00606E  B4D8               	btfsc	status,2,c
  5371  006070  D7B8               	goto	l241
  5372  006072  0A01               	xorlw	1	; case 11
  5373  006074  B4D8               	btfsc	status,2,c
  5374  006076  D7B8               	goto	l242
  5375  006078  0A07               	xorlw	7	; case 12
  5376  00607A  B4D8               	btfsc	status,2,c
  5377  00607C  D7B8               	goto	l243
  5378  00607E  0A01               	xorlw	1	; case 13
  5379  006080  B4D8               	btfsc	status,2,c
  5380  006082  D7B8               	goto	l244
  5381  006084  0A03               	xorlw	3	; case 14
  5382  006086  B4D8               	btfsc	status,2,c
  5383  006088  D7B8               	goto	l245
  5384  00608A  0A01               	xorlw	1	; case 15
  5385  00608C  B4D8               	btfsc	status,2,c
  5386  00608E  D7B8               	goto	l246
  5387  006090  0A1F               	xorlw	31	; case 16
  5388  006092  B4D8               	btfsc	status,2,c
  5389  006094  D7B8               	goto	l247
  5390  006096  0A01               	xorlw	1	; case 17
  5391  006098  B4D8               	btfsc	status,2,c
  5392  00609A  D7B8               	goto	l248
  5393  00609C  0A03               	xorlw	3	; case 18
  5394  00609E  B4D8               	btfsc	status,2,c
  5395  0060A0  D7B8               	goto	l249
  5396  0060A2  0A04               	xorlw	4	; case 22
  5397  0060A4  B4D8               	btfsc	status,2,c
  5398  0060A6  D7B8               	goto	l250
  5399  0060A8  0A01               	xorlw	1	; case 23
  5400  0060AA  B4D8               	btfsc	status,2,c
  5401  0060AC  D7B8               	goto	l251
  5402  0060AE  0A08               	xorlw	8	; case 31
  5403  0060B0  B4D8               	btfsc	status,2,c
  5404  0060B2  D7B8               	goto	l252
  5405  0060B4                     l253:
  5406  0060B4  0012               	return	
  5407  0060B6                     __end_of_inverte_saida:
  5408                           	opt stack 0
  5409                           tblptru	equ	0xFF8
  5410                           tblptrh	equ	0xFF7
  5411                           tblptrl	equ	0xFF6
  5412                           tablat	equ	0xFF5
  5413                           prodh	equ	0xFF4
  5414                           prodl	equ	0xFF3
  5415                           postinc0	equ	0xFEE
  5416                           wreg	equ	0xFE8
  5417                           postdec1	equ	0xFE5
  5418                           fsr1l	equ	0xFE1
  5419                           status	equ	0xFD8
  5420                           
  5421 ;; *************** function _habilita_interrupcao *****************
  5422 ;; Defined at:
  5423 ;;		line 69 in file "SanUSB48X.h"
  5424 ;; Parameters:    Size  Location     Type
  5425 ;;  tipo            2   19[COMRAM] unsigned int 
  5426 ;; Auto vars:     Size  Location     Type
  5427 ;;		None
  5428 ;; Return value:  Size  Location     Type
  5429 ;;		None               void
  5430 ;; Registers used:
  5431 ;;		wreg, status,2, status,0
  5432 ;; Tracked objects:
  5433 ;;		On entry : 0/0
  5434 ;;		On exit  : 0/0
  5435 ;;		Unchanged: 0/0
  5436 ;; Data sizes:     COMRAM   BANK0   BANK1   BANK2   BANK3   BANK4   BANK5   BANK6   BANK7
  5437 ;;      Params:         2       0       0       0       0       0       0       0       0
  5438 ;;      Locals:         0       0       0       0       0       0       0       0       0
  5439 ;;      Temps:          2       0       0       0       0       0       0       0       0
  5440 ;;      Totals:         4       0       0       0       0       0       0       0       0
  5441 ;;Total ram usage:        4 bytes
  5442 ;; Hardware stack levels used:    1
  5443 ;; Hardware stack levels required when called:    2
  5444 ;; This function calls:
  5445 ;;		Nothing
  5446 ;; This function is called by:
  5447 ;;		_main
  5448 ;; This function uses a non-reentrant model
  5449 ;;
  5450                           
  5451                           	psect	text14
  5452  005D10                     __ptext14:
  5453                           	opt stack 0
  5454  005D10                     _habilita_interrupcao:
  5455                           	opt stack 28
  5456                           
  5457                           ;SanUSB48X.h: 70: RCONbits.IPEN = 1;
  5458                           
  5459                           ;incstack = 0
  5460  005D10  8ED0               	bsf	4048,7,c	;volatile
  5461                           
  5462                           ;SanUSB48X.h: 71: INTCONbits.GIEH = 1;
  5463  005D12  8EF2               	bsf	intcon,7,c	;volatile
  5464                           
  5465                           ;SanUSB48X.h: 72: switch(tipo){
  5466  005D14  D01A               	goto	l1715
  5467  005D16                     l140:
  5468  005D16  8AF2               	bsf	intcon,5,c	;volatile
  5469  005D18  8ED5               	bsf	4053,7,c	;volatile
  5470  005D1A  D04B               	goto	l150
  5471  005D1C                     l142:
  5472  005D1C  809D               	bsf	3997,0,c	;volatile
  5473  005D1E  80CD               	bsf	4045,0,c	;volatile
  5474  005D20  D048               	goto	l150
  5475  005D22                     l143:
  5476  005D22  829D               	bsf	3997,1,c	;volatile
  5477  005D24  84CA               	bsf	4042,2,c	;volatile
  5478  005D26  D045               	goto	l150
  5479  005D28                     l144:
  5480  005D28  82A0               	bsf	4000,1,c	;volatile
  5481  005D2A  80B1               	bsf	4017,0,c	;volatile
  5482  005D2C  D042               	goto	l150
  5483  005D2E                     l145:
  5484  005D2E  88F2               	bsf	intcon,4,c	;volatile
  5485  005D30  9CF1               	bcf	intcon2,6,c	;volatile
  5486  005D32  D03F               	goto	l150
  5487  005D34                     l146:
  5488  005D34  86F0               	bsf	intcon3,3,c	;volatile
  5489  005D36  9AF1               	bcf	intcon2,5,c	;volatile
  5490  005D38  D03C               	goto	l150
  5491  005D3A                     l147:
  5492  005D3A  88F0               	bsf	intcon3,4,c	;volatile
  5493  005D3C  98F1               	bcf	intcon2,4,c	;volatile
  5494  005D3E  D039               	goto	l150
  5495  005D40                     l148:
  5496  005D40  8C9D               	bsf	3997,6,c	;volatile
  5497  005D42  D037               	goto	l150
  5498  005D44                     l149:
  5499  005D44  8A9D               	bsf	3997,5,c	;volatile
  5500  005D46  8A9F               	bsf	3999,5,c	;volatile
  5501  005D48  D034               	goto	l150
  5502  005D4A                     l1715:
  5503  005D4A  C014  F016         	movff	habilita_interrupcao@tipo,??_habilita_interrupcao
  5504  005D4E  C015  F017         	movff	habilita_interrupcao@tipo+1,??_habilita_interrupcao+1
  5505                           
  5506                           ; Switch on 2 bytes has been partitioned into a top level switch of size 1, and 4 sub-sw
      +                          itches
  5507                           ; Switch size 1, requested type "space"
  5508                           ; Number of cases is 4, Range of values is 157 to 242
  5509                           ; switch strategies available:
  5510                           ; Name         Instructions Cycles
  5511                           ; simple_byte           13     7 (average)
  5512                           ;	Chosen strategy is simple_byte
  5513  005D52  5017               	movf	??_habilita_interrupcao+1,w,c
  5514  005D54  0A9D               	xorlw	157	; case 157
  5515  005D56  B4D8               	btfsc	status,2,c
  5516  005D58  D00A               	goto	l3807
  5517  005D5A  0A3D               	xorlw	61	; case 160
  5518  005D5C  B4D8               	btfsc	status,2,c
  5519  005D5E  D015               	goto	l3809
  5520  005D60  0A50               	xorlw	80	; case 240
  5521  005D62  B4D8               	btfsc	status,2,c
  5522  005D64  D017               	goto	l3811
  5523  005D66  0A02               	xorlw	2	; case 242
  5524  005D68  B4D8               	btfsc	status,2,c
  5525  005D6A  D01C               	goto	l3813
  5526  005D6C  D022               	goto	l150
  5527  005D6E                     l3807:
  5528                           
  5529                           ; Switch size 1, requested type "space"
  5530                           ; Number of cases is 4, Range of values is 1 to 64
  5531                           ; switch strategies available:
  5532                           ; Name         Instructions Cycles
  5533                           ; simple_byte           13     7 (average)
  5534                           ;	Chosen strategy is simple_byte
  5535  005D6E  5016               	movf	??_habilita_interrupcao,w,c
  5536  005D70  0A01               	xorlw	1	; case 1
  5537  005D72  B4D8               	btfsc	status,2,c
  5538  005D74  D7D3               	goto	l142
  5539  005D76  0A03               	xorlw	3	; case 2
  5540  005D78  B4D8               	btfsc	status,2,c
  5541  005D7A  D7D3               	goto	l143
  5542  005D7C  0A22               	xorlw	34	; case 32
  5543  005D7E  B4D8               	btfsc	status,2,c
  5544  005D80  D7E1               	goto	l149
  5545  005D82  0A60               	xorlw	96	; case 64
  5546  005D84  B4D8               	btfsc	status,2,c
  5547  005D86  D7DC               	goto	l148
  5548  005D88  D014               	goto	l150
  5549  005D8A                     l3809:
  5550                           
  5551                           ; Switch size 1, requested type "space"
  5552                           ; Number of cases is 1, Range of values is 2 to 2
  5553                           ; switch strategies available:
  5554                           ; Name         Instructions Cycles
  5555                           ; simple_byte            4     3 (average)
  5556                           ;	Chosen strategy is simple_byte
  5557  005D8A  5016               	movf	??_habilita_interrupcao,w,c
  5558  005D8C  0A02               	xorlw	2	; case 2
  5559  005D8E  B4D8               	btfsc	status,2,c
  5560  005D90  D7CB               	goto	l144
  5561  005D92  D00F               	goto	l150
  5562  005D94                     l3811:
  5563                           
  5564                           ; Switch size 1, requested type "space"
  5565                           ; Number of cases is 2, Range of values is 8 to 16
  5566                           ; switch strategies available:
  5567                           ; Name         Instructions Cycles
  5568                           ; simple_byte            7     4 (average)
  5569                           ;	Chosen strategy is simple_byte
  5570  005D94  5016               	movf	??_habilita_interrupcao,w,c
  5571  005D96  0A08               	xorlw	8	; case 8
  5572  005D98  B4D8               	btfsc	status,2,c
  5573  005D9A  D7CC               	goto	l146
  5574  005D9C  0A18               	xorlw	24	; case 16
  5575  005D9E  B4D8               	btfsc	status,2,c
  5576  005DA0  D7CC               	goto	l147
  5577  005DA2  D007               	goto	l150
  5578  005DA4                     l3813:
  5579                           
  5580                           ; Switch size 1, requested type "space"
  5581                           ; Number of cases is 2, Range of values is 16 to 32
  5582                           ; switch strategies available:
  5583                           ; Name         Instructions Cycles
  5584                           ; simple_byte            7     4 (average)
  5585                           ;	Chosen strategy is simple_byte
  5586  005DA4  5016               	movf	??_habilita_interrupcao,w,c
  5587  005DA6  0A10               	xorlw	16	; case 16
  5588  005DA8  B4D8               	btfsc	status,2,c
  5589  005DAA  D7C1               	goto	l145
  5590  005DAC  0A30               	xorlw	48	; case 32
  5591  005DAE  B4D8               	btfsc	status,2,c
  5592  005DB0  D7B2               	goto	l140
  5593  005DB2                     l150:
  5594  005DB2  0012               	return	
  5595  005DB4                     __end_of_habilita_interrupcao:
  5596                           	opt stack 0
  5597                           tblptru	equ	0xFF8
  5598                           tblptrh	equ	0xFF7
  5599                           tblptrl	equ	0xFF6
  5600                           tablat	equ	0xFF5
  5601                           prodh	equ	0xFF4
  5602                           prodl	equ	0xFF3
  5603                           intcon	equ	0xFF2
  5604                           intcon2	equ	0xFF1
  5605                           intcon3	equ	0xFF0
  5606                           postinc0	equ	0xFEE
  5607                           wreg	equ	0xFE8
  5608                           postdec1	equ	0xFE5
  5609                           fsr1l	equ	0xFE1
  5610                           status	equ	0xFD8
  5611                           
  5612 ;; *************** function _habilita_canal_AD *****************
  5613 ;; Defined at:
  5614 ;;		line 312 in file "SanUSB48X.h"
  5615 ;; Parameters:    Size  Location     Type
  5616 ;;  canal           1    wreg     unsigned char 
  5617 ;; Auto vars:     Size  Location     Type
  5618 ;;  canal           1   19[COMRAM] unsigned char 
  5619 ;; Return value:  Size  Location     Type
  5620 ;;		None               void
  5621 ;; Registers used:
  5622 ;;		wreg, status,2, status,0
  5623 ;; Tracked objects:
  5624 ;;		On entry : 0/0
  5625 ;;		On exit  : 0/0
  5626 ;;		Unchanged: 0/0
  5627 ;; Data sizes:     COMRAM   BANK0   BANK1   BANK2   BANK3   BANK4   BANK5   BANK6   BANK7
  5628 ;;      Params:         0       0       0       0       0       0       0       0       0
  5629 ;;      Locals:         1       0       0       0       0       0       0       0       0
  5630 ;;      Temps:          0       0       0       0       0       0       0       0       0
  5631 ;;      Totals:         1       0       0       0       0       0       0       0       0
  5632 ;;Total ram usage:        1 bytes
  5633 ;; Hardware stack levels used:    1
  5634 ;; Hardware stack levels required when called:    2
  5635 ;; This function calls:
  5636 ;;		Nothing
  5637 ;; This function is called by:
  5638 ;;		_main
  5639 ;; This function uses a non-reentrant model
  5640 ;;
  5641                           
  5642                           	psect	text15
  5643  005856                     __ptext15:
  5644                           	opt stack 0
  5645  005856                     _habilita_canal_AD:
  5646                           	opt stack 28
  5647                           
  5648                           ;incstack = 0
  5649                           ;habilita_canal_AD@canal stored from wreg
  5650  005856  CFE8 F014          	movff	wreg,habilita_canal_AD@canal
  5651                           
  5652                           ;SanUSB48X.h: 313: ADCON1 =REG+canal;
  5653  00585A  504B               	movf	_REG,w,c
  5654  00585C  2414               	addwf	habilita_canal_AD@canal,w,c
  5655  00585E  6EC1               	movwf	4033,c	;volatile
  5656                           
  5657                           ;SanUSB48X.h: 314: ADCON2=REG+0b00000111;
  5658  005860  504B               	movf	_REG,w,c
  5659  005862  0F07               	addlw	7
  5660  005864  6EC0               	movwf	4032,c	;volatile
  5661  005866  0012               	return	
  5662  005868                     __end_of_habilita_canal_AD:
  5663                           	opt stack 0
  5664                           tblptru	equ	0xFF8
  5665                           tblptrh	equ	0xFF7
  5666                           tblptrl	equ	0xFF6
  5667                           tablat	equ	0xFF5
  5668                           prodh	equ	0xFF4
  5669                           prodl	equ	0xFF3
  5670                           intcon	equ	0xFF2
  5671                           intcon2	equ	0xFF1
  5672                           intcon3	equ	0xFF0
  5673                           postinc0	equ	0xFEE
  5674                           wreg	equ	0xFE8
  5675                           postdec1	equ	0xFE5
  5676                           fsr1l	equ	0xFE1
  5677                           status	equ	0xFD8
  5678                           
  5679 ;; *************** function _clock_int_48MHz *****************
  5680 ;; Defined at:
  5681 ;;		line 430 in file "SanUSB48X.h"
  5682 ;; Parameters:    Size  Location     Type
  5683 ;;		None
  5684 ;; Auto vars:     Size  Location     Type
  5685 ;;		None
  5686 ;; Return value:  Size  Location     Type
  5687 ;;		None               void
  5688 ;; Registers used:
  5689 ;;		wreg, status,2, status,0, prodl, cstack
  5690 ;; Tracked objects:
  5691 ;;		On entry : 0/0
  5692 ;;		On exit  : 0/0
  5693 ;;		Unchanged: 0/0
  5694 ;; Data sizes:     COMRAM   BANK0   BANK1   BANK2   BANK3   BANK4   BANK5   BANK6   BANK7
  5695 ;;      Params:         0       0       0       0       0       0       0       0       0
  5696 ;;      Locals:         0       0       0       0       0       0       0       0       0
  5697 ;;      Temps:          0       0       0       0       0       0       0       0       0
  5698 ;;      Totals:         0       0       0       0       0       0       0       0       0
  5699 ;;Total ram usage:        0 bytes
  5700 ;; Hardware stack levels used:    1
  5701 ;; Hardware stack levels required when called:    3
  5702 ;; This function calls:
  5703 ;;		___awmod
  5704 ;;		___lwdiv
  5705 ;;		_le_eeprom
  5706 ;; This function is called by:
  5707 ;;		_main
  5708 ;; This function uses a non-reentrant model
  5709 ;;
  5710                           
  5711                           	psect	text16
  5712  0059E2                     __ptext16:
  5713                           	opt stack 0
  5714  0059E2                     _clock_int_48MHz:
  5715                           	opt stack 27
  5716                           
  5717                           ;SanUSB48X.h: 433: EEADR = 0B11111101;
  5718                           
  5719                           ;incstack = 0
  5720  0059E2  0EFD               	movlw	253
  5721  0059E4  6EA9               	movwf	4009,c	;volatile
  5722                           
  5723                           ;SanUSB48X.h: 434: EECON1=EEADR & 0B00001011;
  5724  0059E6  50A9               	movf	4009,w,c	;volatile
  5725  0059E8  0B0B               	andlw	11
  5726  0059EA  6EA6               	movwf	4006,c	;volatile
  5727  0059EC                     l376:
  5728  0059EC  66A8               	tstfsz	4008,c	;volatile
  5729  0059EE  D7FE               	goto	l376
  5730                           
  5731                           ;SanUSB48X.h: 436: REGad=R/((EEADR%126)<<4);
  5732  0059F0  C049  F01B         	movff	_R,___lwdiv@dividend
  5733  0059F4  C04A  F01C         	movff	_R+1,___lwdiv@dividend+1
  5734  0059F8  0E00               	movlw	0
  5735  0059FA  6E17               	movwf	___awmod@divisor+1,c
  5736  0059FC  0E7E               	movlw	126
  5737  0059FE  6E16               	movwf	___awmod@divisor,c
  5738  005A00  CFA9 F014          	movff	4009,___awmod@dividend	;volatile
  5739  005A04  6A15               	clrf	___awmod@dividend+1,c
  5740  005A06  EC3A  F02E         	call	___awmod	;wreg free
  5741  005A0A  3A14               	swapf	?___awmod,f,c
  5742  005A0C  3A15               	swapf	?___awmod+1,f,c
  5743  005A0E  0EF0               	movlw	240
  5744  005A10  1615               	andwf	?___awmod+1,f,c
  5745  005A12  5014               	movf	?___awmod,w,c
  5746  005A14  0B0F               	andlw	15
  5747  005A16  1215               	iorwf	?___awmod+1,f,c
  5748  005A18  0EF0               	movlw	240
  5749  005A1A  1614               	andwf	?___awmod,f,c
  5750  005A1C  C014  F01D         	movff	?___awmod,___lwdiv@divisor
  5751  005A20  C015  F01E         	movff	?___awmod+1,___lwdiv@divisor+1
  5752  005A24  EC1B  F02D         	call	___lwdiv	;wreg free
  5753  005A28  501B               	movf	?___lwdiv,w,c
  5754  005A2A  6E4C               	movwf	_REGad,c
  5755                           
  5756                           ;SanUSB48X.h: 437: REG=le_eeprom(REGad);
  5757  005A2C  504C               	movf	_REGad,w,c
  5758  005A2E  EC3D  F02C         	call	_le_eeprom
  5759  005A32  6E4B               	movwf	_REG,c
  5760  005A34  0012               	return	
  5761  005A36                     __end_of_clock_int_48MHz:
  5762                           	opt stack 0
  5763                           tblptru	equ	0xFF8
  5764                           tblptrh	equ	0xFF7
  5765                           tblptrl	equ	0xFF6
  5766                           tablat	equ	0xFF5
  5767                           prodh	equ	0xFF4
  5768                           prodl	equ	0xFF3
  5769                           intcon	equ	0xFF2
  5770                           intcon2	equ	0xFF1
  5771                           intcon3	equ	0xFF0
  5772                           postinc0	equ	0xFEE
  5773                           wreg	equ	0xFE8
  5774                           postdec1	equ	0xFE5
  5775                           fsr1l	equ	0xFE1
  5776                           status	equ	0xFD8
  5777                           
  5778 ;; *************** function _le_eeprom *****************
  5779 ;; Defined at:
  5780 ;;		line 420 in file "SanUSB48X.h"
  5781 ;; Parameters:    Size  Location     Type
  5782 ;;  endereco        1    wreg     unsigned char 
  5783 ;; Auto vars:     Size  Location     Type
  5784 ;;  endereco        1   19[COMRAM] unsigned char 
  5785 ;; Return value:  Size  Location     Type
  5786 ;;                  1    wreg      unsigned char 
  5787 ;; Registers used:
  5788 ;;		wreg, status,2
  5789 ;; Tracked objects:
  5790 ;;		On entry : 0/0
  5791 ;;		On exit  : 0/0
  5792 ;;		Unchanged: 0/0
  5793 ;; Data sizes:     COMRAM   BANK0   BANK1   BANK2   BANK3   BANK4   BANK5   BANK6   BANK7
  5794 ;;      Params:         0       0       0       0       0       0       0       0       0
  5795 ;;      Locals:         1       0       0       0       0       0       0       0       0
  5796 ;;      Temps:          0       0       0       0       0       0       0       0       0
  5797 ;;      Totals:         1       0       0       0       0       0       0       0       0
  5798 ;;Total ram usage:        1 bytes
  5799 ;; Hardware stack levels used:    1
  5800 ;; Hardware stack levels required when called:    2
  5801 ;; This function calls:
  5802 ;;		Nothing
  5803 ;; This function is called by:
  5804 ;;		_clock_int_48MHz
  5805 ;; This function uses a non-reentrant model
  5806 ;;
  5807                           
  5808                           	psect	text17
  5809  00587A                     __ptext17:
  5810                           	opt stack 0
  5811  00587A                     _le_eeprom:
  5812                           	opt stack 27
  5813                           
  5814                           ;incstack = 0
  5815                           ;le_eeprom@endereco stored from wreg
  5816  00587A  CFE8 F014          	movff	wreg,le_eeprom@endereco
  5817                           
  5818                           ;SanUSB48X.h: 422: EEADR = endereco;
  5819  00587E  C014  FFA9         	movff	le_eeprom@endereco,4009	;volatile
  5820                           
  5821                           ;SanUSB48X.h: 423: EECON1bits.WREN = 0;
  5822  005882  94A6               	bcf	4006,2,c	;volatile
  5823                           
  5824                           ;SanUSB48X.h: 424: EECON1bits.EEPGD = 0;
  5825  005884  9EA6               	bcf	4006,7,c	;volatile
  5826                           
  5827                           ;SanUSB48X.h: 425: EECON1bits.CFGS = 0;
  5828  005886  9CA6               	bcf	4006,6,c	;volatile
  5829                           
  5830                           ;SanUSB48X.h: 426: EECON1bits.RD = 1;
  5831  005888  80A6               	bsf	4006,0,c	;volatile
  5832                           
  5833                           ;SanUSB48X.h: 427: return EEDATA;
  5834  00588A  50A8               	movf	4008,w,c	;volatile
  5835  00588C  0012               	return	
  5836  00588E                     __end_of_le_eeprom:
  5837                           	opt stack 0
  5838                           tblptru	equ	0xFF8
  5839                           tblptrh	equ	0xFF7
  5840                           tblptrl	equ	0xFF6
  5841                           tablat	equ	0xFF5
  5842                           prodh	equ	0xFF4
  5843                           prodl	equ	0xFF3
  5844                           intcon	equ	0xFF2
  5845                           intcon2	equ	0xFF1
  5846                           intcon3	equ	0xFF0
  5847                           postinc0	equ	0xFEE
  5848                           wreg	equ	0xFE8
  5849                           postdec1	equ	0xFE5
  5850                           fsr1l	equ	0xFE1
  5851                           status	equ	0xFD8
  5852                           
  5853 ;; *************** function ___lwdiv *****************
  5854 ;; Defined at:
  5855 ;;		line 8 in file "C:\Program Files (x86)\Microchip\xc8\v1.31\sources\common\lwdiv.c"
  5856 ;; Parameters:    Size  Location     Type
  5857 ;;  dividend        2   26[COMRAM] unsigned int 
  5858 ;;  divisor         2   28[COMRAM] unsigned int 
  5859 ;; Auto vars:     Size  Location     Type
  5860 ;;  quotient        2   31[COMRAM] unsigned int 
  5861 ;;  counter         1   33[COMRAM] unsigned char 
  5862 ;; Return value:  Size  Location     Type
  5863 ;;                  2   26[COMRAM] unsigned int 
  5864 ;; Registers used:
  5865 ;;		wreg, status,2, status,0
  5866 ;; Tracked objects:
  5867 ;;		On entry : 0/0
  5868 ;;		On exit  : 0/0
  5869 ;;		Unchanged: 0/0
  5870 ;; Data sizes:     COMRAM   BANK0   BANK1   BANK2   BANK3   BANK4   BANK5   BANK6   BANK7
  5871 ;;      Params:         4       0       0       0       0       0       0       0       0
  5872 ;;      Locals:         3       0       0       0       0       0       0       0       0
  5873 ;;      Temps:          1       0       0       0       0       0       0       0       0
  5874 ;;      Totals:         8       0       0       0       0       0       0       0       0
  5875 ;;Total ram usage:        8 bytes
  5876 ;; Hardware stack levels used:    1
  5877 ;; Hardware stack levels required when called:    2
  5878 ;; This function calls:
  5879 ;;		Nothing
  5880 ;; This function is called by:
  5881 ;;		_clock_int_48MHz
  5882 ;;		_sendnum
  5883 ;; This function uses a non-reentrant model
  5884 ;;
  5885                           
  5886                           	psect	text18
  5887  005A36                     __ptext18:
  5888                           	opt stack 0
  5889  005A36                     ___lwdiv:
  5890                           	opt stack 27
  5891                           
  5892                           ;incstack = 0
  5893  005A36  0E00               	movlw	0
  5894  005A38  6E21               	movwf	___lwdiv@quotient+1,c
  5895  005A3A  0E00               	movlw	0
  5896  005A3C  6E20               	movwf	___lwdiv@quotient,c
  5897  005A3E  501E               	movf	___lwdiv@divisor+1,w,c
  5898  005A40  101D               	iorwf	___lwdiv@divisor,w,c
  5899  005A42  B4D8               	btfsc	status,2,c
  5900  005A44  D01E               	goto	l1097
  5901  005A46  6E1F               	movwf	??___lwdiv& (0+255),c
  5902  005A48  0E01               	movlw	1
  5903  005A4A  6E22               	movwf	___lwdiv@counter,c
  5904  005A4C  501F               	movf	??___lwdiv& (0+255),w,c
  5905  005A4E  D004               	goto	l1681
  5906  005A50                     l1679:
  5907  005A50  90D8               	bcf	status,0,c
  5908  005A52  361D               	rlcf	___lwdiv@divisor,f,c
  5909  005A54  361E               	rlcf	___lwdiv@divisor+1,f,c
  5910  005A56  2A22               	incf	___lwdiv@counter,f,c
  5911  005A58                     l1681:
  5912  005A58  AE1E               	btfss	___lwdiv@divisor+1,7,c
  5913  005A5A  D7FA               	goto	l1679
  5914  005A5C                     l1683:
  5915  005A5C  90D8               	bcf	status,0,c
  5916  005A5E  3620               	rlcf	___lwdiv@quotient,f,c
  5917  005A60  3621               	rlcf	___lwdiv@quotient+1,f,c
  5918  005A62  501D               	movf	___lwdiv@divisor,w,c
  5919  005A64  5C1B               	subwf	___lwdiv@dividend,w,c
  5920  005A66  501E               	movf	___lwdiv@divisor+1,w,c
  5921  005A68  581C               	subwfb	___lwdiv@dividend+1,w,c
  5922  005A6A  A0D8               	btfss	status,0,c
  5923  005A6C  D005               	goto	l1691
  5924  005A6E  501D               	movf	___lwdiv@divisor,w,c
  5925  005A70  5E1B               	subwf	___lwdiv@dividend,f,c
  5926  005A72  501E               	movf	___lwdiv@divisor+1,w,c
  5927  005A74  5A1C               	subwfb	___lwdiv@dividend+1,f,c
  5928  005A76  8020               	bsf	___lwdiv@quotient,0,c
  5929  005A78                     l1691:
  5930  005A78  90D8               	bcf	status,0,c
  5931  005A7A  321E               	rrcf	___lwdiv@divisor+1,f,c
  5932  005A7C  321D               	rrcf	___lwdiv@divisor,f,c
  5933  005A7E  2E22               	decfsz	___lwdiv@counter,f,c
  5934  005A80  D7ED               	goto	l1683
  5935  005A82                     l1097:
  5936  005A82  C020  F01B         	movff	___lwdiv@quotient,?___lwdiv
  5937  005A86  C021  F01C         	movff	___lwdiv@quotient+1,?___lwdiv+1
  5938  005A8A  0012               	return	
  5939  005A8C                     __end_of___lwdiv:
  5940                           	opt stack 0
  5941                           tblptru	equ	0xFF8
  5942                           tblptrh	equ	0xFF7
  5943                           tblptrl	equ	0xFF6
  5944                           tablat	equ	0xFF5
  5945                           prodh	equ	0xFF4
  5946                           prodl	equ	0xFF3
  5947                           intcon	equ	0xFF2
  5948                           intcon2	equ	0xFF1
  5949                           intcon3	equ	0xFF0
  5950                           postinc0	equ	0xFEE
  5951                           wreg	equ	0xFE8
  5952                           postdec1	equ	0xFE5
  5953                           fsr1l	equ	0xFE1
  5954                           status	equ	0xFD8
  5955                           
  5956 ;; *************** function ___awmod *****************
  5957 ;; Defined at:
  5958 ;;		line 8 in file "C:\Program Files (x86)\Microchip\xc8\v1.31\sources\common\awmod.c"
  5959 ;; Parameters:    Size  Location     Type
  5960 ;;  dividend        2   19[COMRAM] int 
  5961 ;;  divisor         2   21[COMRAM] int 
  5962 ;; Auto vars:     Size  Location     Type
  5963 ;;  sign            1   25[COMRAM] unsigned char 
  5964 ;;  counter         1   24[COMRAM] unsigned char 
  5965 ;; Return value:  Size  Location     Type
  5966 ;;                  2   19[COMRAM] int 
  5967 ;; Registers used:
  5968 ;;		wreg, status,2, status,0, prodl
  5969 ;; Tracked objects:
  5970 ;;		On entry : 0/0
  5971 ;;		On exit  : 0/0
  5972 ;;		Unchanged: 0/0
  5973 ;; Data sizes:     COMRAM   BANK0   BANK1   BANK2   BANK3   BANK4   BANK5   BANK6   BANK7
  5974 ;;      Params:         4       0       0       0       0       0       0       0       0
  5975 ;;      Locals:         2       0       0       0       0       0       0       0       0
  5976 ;;      Temps:          1       0       0       0       0       0       0       0       0
  5977 ;;      Totals:         7       0       0       0       0       0       0       0       0
  5978 ;;Total ram usage:        7 bytes
  5979 ;; Hardware stack levels used:    1
  5980 ;; Hardware stack levels required when called:    2
  5981 ;; This function calls:
  5982 ;;		Nothing
  5983 ;; This function is called by:
  5984 ;;		_clock_int_48MHz
  5985 ;; This function uses a non-reentrant model
  5986 ;;
  5987                           
  5988                           	psect	text19
  5989  005C74                     __ptext19:
  5990                           	opt stack 0
  5991  005C74                     ___awmod:
  5992                           	opt stack 27
  5993                           
  5994                           ;incstack = 0
  5995  005C74  6E18               	movwf	??___awmod& (0+255),c
  5996  005C76  0E00               	movlw	0
  5997  005C78  6E1A               	movwf	___awmod@sign,c
  5998  005C7A  5018               	movf	??___awmod& (0+255),w,c
  5999  005C7C  5015               	movf	___awmod@dividend+1,w,c
  6000  005C7E  0A80               	xorlw	128
  6001  005C80  6EF3               	movwf	prodl,c
  6002  005C82  0E80               	movlw	128
  6003  005C84  5CF3               	subwf	prodl,w,c
  6004  005C86  0E00               	movlw	0
  6005  005C88  B4D8               	btfsc	status,2,c
  6006  005C8A  5C14               	subwf	___awmod@dividend,w,c
  6007  005C8C  B0D8               	btfsc	status,0,c
  6008  005C8E  D008               	goto	l1623
  6009  005C90  6C14               	negf	___awmod@dividend,c
  6010  005C92  1E15               	comf	___awmod@dividend+1,f,c
  6011  005C94  B0D8               	btfsc	status,0,c
  6012  005C96  2A15               	incf	___awmod@dividend+1,f,c
  6013  005C98  6E18               	movwf	??___awmod& (0+255),c
  6014  005C9A  0E01               	movlw	1
  6015  005C9C  6E1A               	movwf	___awmod@sign,c
  6016  005C9E  5018               	movf	??___awmod& (0+255),w,c
  6017  005CA0                     l1623:
  6018  005CA0  5017               	movf	___awmod@divisor+1,w,c
  6019  005CA2  0A80               	xorlw	128
  6020  005CA4  6EF3               	movwf	prodl,c
  6021  005CA6  0E80               	movlw	128
  6022  005CA8  5CF3               	subwf	prodl,w,c
  6023  005CAA  0E00               	movlw	0
  6024  005CAC  B4D8               	btfsc	status,2,c
  6025  005CAE  5C16               	subwf	___awmod@divisor,w,c
  6026  005CB0  B0D8               	btfsc	status,0,c
  6027  005CB2  D004               	goto	l1627
  6028  005CB4  6C16               	negf	___awmod@divisor,c
  6029  005CB6  1E17               	comf	___awmod@divisor+1,f,c
  6030  005CB8  B0D8               	btfsc	status,0,c
  6031  005CBA  2A17               	incf	___awmod@divisor+1,f,c
  6032  005CBC                     l1627:
  6033  005CBC  5017               	movf	___awmod@divisor+1,w,c
  6034  005CBE  1016               	iorwf	___awmod@divisor,w,c
  6035  005CC0  B4D8               	btfsc	status,2,c
  6036  005CC2  D01A               	goto	l1643
  6037  005CC4  6E18               	movwf	??___awmod& (0+255),c
  6038  005CC6  0E01               	movlw	1
  6039  005CC8  6E19               	movwf	___awmod@counter,c
  6040  005CCA  5018               	movf	??___awmod& (0+255),w,c
  6041  005CCC  D004               	goto	l1633
  6042  005CCE                     l1631:
  6043  005CCE  90D8               	bcf	status,0,c
  6044  005CD0  3616               	rlcf	___awmod@divisor,f,c
  6045  005CD2  3617               	rlcf	___awmod@divisor+1,f,c
  6046  005CD4  2A19               	incf	___awmod@counter,f,c
  6047  005CD6                     l1633:
  6048  005CD6  AE17               	btfss	___awmod@divisor+1,7,c
  6049  005CD8  D7FA               	goto	l1631
  6050  005CDA                     l1635:
  6051  005CDA  5016               	movf	___awmod@divisor,w,c
  6052  005CDC  5C14               	subwf	___awmod@dividend,w,c
  6053  005CDE  5017               	movf	___awmod@divisor+1,w,c
  6054  005CE0  5815               	subwfb	___awmod@dividend+1,w,c
  6055  005CE2  A0D8               	btfss	status,0,c
  6056  005CE4  D004               	goto	l1639
  6057  005CE6  5016               	movf	___awmod@divisor,w,c
  6058  005CE8  5E14               	subwf	___awmod@dividend,f,c
  6059  005CEA  5017               	movf	___awmod@divisor+1,w,c
  6060  005CEC  5A15               	subwfb	___awmod@dividend+1,f,c
  6061  005CEE                     l1639:
  6062  005CEE  90D8               	bcf	status,0,c
  6063  005CF0  3217               	rrcf	___awmod@divisor+1,f,c
  6064  005CF2  3216               	rrcf	___awmod@divisor,f,c
  6065  005CF4  2E19               	decfsz	___awmod@counter,f,c
  6066  005CF6  D7F1               	goto	l1635
  6067  005CF8                     l1643:
  6068  005CF8  501A               	movf	___awmod@sign,w,c
  6069  005CFA  B4D8               	btfsc	status,2,c
  6070  005CFC  D004               	goto	l1647
  6071  005CFE  6C14               	negf	___awmod@dividend,c
  6072  005D00  1E15               	comf	___awmod@dividend+1,f,c
  6073  005D02  B0D8               	btfsc	status,0,c
  6074  005D04  2A15               	incf	___awmod@dividend+1,f,c
  6075  005D06                     l1647:
  6076  005D06  C014  F014         	movff	___awmod@dividend,?___awmod
  6077  005D0A  C015  F015         	movff	___awmod@dividend+1,?___awmod+1
  6078  005D0E  0012               	return	
  6079  005D10                     __end_of___awmod:
  6080                           	opt stack 0
  6081                           tblptru	equ	0xFF8
  6082                           tblptrh	equ	0xFF7
  6083                           tblptrl	equ	0xFF6
  6084                           tablat	equ	0xFF5
  6085                           prodh	equ	0xFF4
  6086                           prodl	equ	0xFF3
  6087                           intcon	equ	0xFF2
  6088                           intcon2	equ	0xFF1
  6089                           intcon3	equ	0xFF0
  6090                           postinc0	equ	0xFEE
  6091                           wreg	equ	0xFE8
  6092                           postdec1	equ	0xFE5
  6093                           fsr1l	equ	0xFE1
  6094                           status	equ	0xFD8
  6095                           
  6096 ;; *************** function _interrupcao *****************
  6097 ;; Defined at:
  6098 ;;		line 48 in file "WiflySanUSB.c"
  6099 ;; Parameters:    Size  Location     Type
  6100 ;;		None
  6101 ;; Auto vars:     Size  Location     Type
  6102 ;;		None
  6103 ;; Return value:  Size  Location     Type
  6104 ;;		None               void
  6105 ;; Registers used:
  6106 ;;		wreg, fsr2l, fsr2h, status,2, status,0, prodl, prodh, cstack
  6107 ;; Tracked objects:
  6108 ;;		On entry : 0/0
  6109 ;;		On exit  : 0/0
  6110 ;;		Unchanged: 0/0
  6111 ;; Data sizes:     COMRAM   BANK0   BANK1   BANK2   BANK3   BANK4   BANK5   BANK6   BANK7
  6112 ;;      Params:         0       0       0       0       0       0       0       0       0
  6113 ;;      Locals:         0       0       0       0       0       0       0       0       0
  6114 ;;      Temps:         15       0       0       0       0       0       0       0       0
  6115 ;;      Totals:        15       0       0       0       0       0       0       0       0
  6116 ;;Total ram usage:       15 bytes
  6117 ;; Hardware stack levels used:    1
  6118 ;; Hardware stack levels required when called:    1
  6119 ;; This function calls:
  6120 ;;		_ReadUSART
  6121 ;;		_nivel_alto
  6122 ;;		_nivel_baixo
  6123 ;;		i2_inverte_saida
  6124 ;; This function is called by:
  6125 ;;		Interrupt level 2
  6126 ;; This function uses a non-reentrant model
  6127 ;;
  6128                           
  6129                           	psect	intcode
  6130  001008                     __pintcode:
  6131                           	opt stack 0
  6132  001008                     _interrupcao:
  6133                           	opt stack 26
  6134                           
  6135                           ;incstack = 0
  6136  001008  CFFA F006          	movff	pclath,??_interrupcao+1
  6137  00100C  CFFB F007          	movff	pclatu,??_interrupcao+2
  6138  001010  CFE9 F008          	movff	fsr0l,??_interrupcao+3
  6139  001014  ED19  F032         	call	int_func,f	;refresh shadow registers
  6140                           pclatu	equ	0xFFB
  6141                           pclath	equ	0xFFA
  6142                           tblptru	equ	0xFF8
  6143                           tblptrh	equ	0xFF7
  6144                           tblptrl	equ	0xFF6
  6145                           tablat	equ	0xFF5
  6146                           prodh	equ	0xFF4
  6147                           prodl	equ	0xFF3
  6148                           intcon	equ	0xFF2
  6149                           intcon2	equ	0xFF1
  6150                           intcon3	equ	0xFF0
  6151                           postinc0	equ	0xFEE
  6152                           fsr0l	equ	0xFE9
  6153                           wreg	equ	0xFE8
  6154                           postdec1	equ	0xFE5
  6155                           fsr1l	equ	0xFE1
  6156                           status	equ	0xFD8
  6157                           
  6158                           	psect	intcode_body
  6159  006432                     __pintcode_body:
  6160                           	opt stack 26
  6161  006432                     int_func:
  6162                           	opt stack 26
  6163  006432  0006               	pop		; remove dummy address from shadow register refresh
  6164  006434  CFEA F009          	movff	fsr0h,??_interrupcao+4
  6165  006438  CFE1 F00A          	movff	fsr1l,??_interrupcao+5
  6166  00643C  CFE2 F00B          	movff	fsr1h,??_interrupcao+6
  6167  006440  CFD9 F00C          	movff	fsr2l,??_interrupcao+7
  6168  006444  CFDA F00D          	movff	fsr2h,??_interrupcao+8
  6169  006448  CFF3 F00E          	movff	prodl,??_interrupcao+9
  6170  00644C  CFF4 F00F          	movff	prodh,??_interrupcao+10
  6171  006450  CFF6 F010          	movff	tblptrl,??_interrupcao+11
  6172  006454  CFF7 F011          	movff	tblptrh,??_interrupcao+12
  6173  006458  CFF8 F012          	movff	tblptru,??_interrupcao+13
  6174  00645C  CFF5 F013          	movff	tablat,??_interrupcao+14
  6175                           
  6176                           ;WiflySanUSB.c: 49: if (PIR1bits.RCIF) {
  6177  006460  AA9E               	btfss	3998,5,c	;volatile
  6178  006462  D0AC               	goto	i2l499
  6179                           
  6180                           ;WiflySanUSB.c: 50: PIR1bits.RCIF=0;
  6181  006464  9A9E               	bcf	3998,5,c	;volatile
  6182                           
  6183                           ;WiflySanUSB.c: 51: comando[n] = ReadUSART(); m=n;
  6184  006466  5047               	movf	_n,w,c
  6185  006468  0D01               	mullw	1
  6186  00646A  0100               	movlb	0	; () banked
  6187  00646C  0E60               	movlw	low _comando
  6188  00646E  24F3               	addwf	prodl,w,c
  6189  006470  6ED9               	movwf	fsr2l,c
  6190  006472  0100               	movlb	0	; () banked
  6191  006474  0E00               	movlw	high _comando
  6192  006476  20F4               	addwfc	prodh,w,c
  6193  006478  6EDA               	movwf	fsr2h,c
  6194  00647A  EC47  F02C         	call	_ReadUSART	;wreg free
  6195  00647E  6EDF               	movwf	indf2,c
  6196  006480  C047  F046         	movff	_n,_m
  6197                           
  6198                           ;WiflySanUSB.c: 53: switch (comando[n]){
  6199  006484  D015               	goto	i2l3561
  6200  006486                     i2l3549:
  6201                           
  6202                           ;WiflySanUSB.c: 60: AT2=1;
  6203  006486  0E00               	movlw	0
  6204  006488  6E3B               	movwf	_AT2+1,c
  6205  00648A  0E01               	movlw	1
  6206  00648C  6E3A               	movwf	_AT2,c
  6207                           
  6208                           ;WiflySanUSB.c: 61: break;
  6209  00648E  D02D               	goto	i2l3563
  6210  006490                     i2l3555:
  6211                           
  6212                           ;WiflySanUSB.c: 72: AT1=1;
  6213  006490  0E00               	movlw	0
  6214  006492  6E39               	movwf	_AT1+1,c
  6215  006494  0E01               	movlw	1
  6216  006496  6E38               	movwf	_AT1,c
  6217                           
  6218                           ;WiflySanUSB.c: 73: break;
  6219  006498  D028               	goto	i2l3563
  6220  00649A                     i2l3557:
  6221                           
  6222                           ;WiflySanUSB.c: 75: {n=0;comando[0] = 'Y';}
  6223  00649A  6E05               	movwf	??_interrupcao& (0+255),c
  6224  00649C  0E00               	movlw	0
  6225  00649E  6E47               	movwf	_n,c
  6226  0064A0  5005               	movf	??_interrupcao& (0+255),w,c
  6227  0064A2  6E05               	movwf	??_interrupcao& (0+255),c
  6228  0064A4  0E59               	movlw	89
  6229  0064A6  0100               	movlb	0	; () banked
  6230  0064A8  0100               	movlb	0	; () banked
  6231  0064AA  6F60               	movwf	_comando& (0+255),b
  6232  0064AC  5005               	movf	??_interrupcao& (0+255),w,c
  6233                           
  6234                           ;WiflySanUSB.c: 76: break;
  6235  0064AE  D01D               	goto	i2l3563
  6236  0064B0                     i2l3561:
  6237  0064B0  5047               	movf	_n,w,c
  6238  0064B2  0D01               	mullw	1
  6239  0064B4  0100               	movlb	0	; () banked
  6240  0064B6  0E60               	movlw	low _comando
  6241  0064B8  24F3               	addwf	prodl,w,c
  6242  0064BA  6ED9               	movwf	fsr2l,c
  6243  0064BC  0100               	movlb	0	; () banked
  6244  0064BE  0E00               	movlw	high _comando
  6245  0064C0  20F4               	addwfc	prodh,w,c
  6246  0064C2  6EDA               	movwf	fsr2h,c
  6247  0064C4  50DF               	movf	indf2,w,c
  6248                           
  6249                           ; Switch size 1, requested type "space"
  6250                           ; Number of cases is 6, Range of values is 42 to 89
  6251                           ; switch strategies available:
  6252                           ; Name         Instructions Cycles
  6253                           ; simple_byte           19    10 (average)
  6254                           ;	Chosen strategy is simple_byte
  6255  0064C6  0A2A               	xorlw	42	; case 42
  6256  0064C8  B4D8               	btfsc	status,2,c
  6257  0064CA  D7E2               	goto	i2l3555
  6258  0064CC  0A6B               	xorlw	107	; case 65
  6259  0064CE  B4D8               	btfsc	status,2,c
  6260  0064D0  D7DF               	goto	i2l3555
  6261  0064D2  0A02               	xorlw	2	; case 67
  6262  0064D4  B4D8               	btfsc	status,2,c
  6263  0064D6  D7DC               	goto	i2l3555
  6264  0064D8  0A0A               	xorlw	10	; case 73
  6265  0064DA  B4D8               	btfsc	status,2,c
  6266  0064DC  D7D4               	goto	i2l3549
  6267  0064DE  0A1A               	xorlw	26	; case 83
  6268  0064E0  B4D8               	btfsc	status,2,c
  6269  0064E2  D7D6               	goto	i2l3555
  6270  0064E4  0A0A               	xorlw	10	; case 89
  6271  0064E6  B4D8               	btfsc	status,2,c
  6272  0064E8  D7D8               	goto	i2l3557
  6273  0064EA                     i2l3563:
  6274                           
  6275                           ;WiflySanUSB.c: 79: if (comando[0]== 'Y' && n==1){comando[0]== 32;
  6276  0064EA  0100               	movlb	0	; () banked
  6277  0064EC  0100               	movlb	0	; () banked
  6278  0064EE  5160               	movf	_comando& (0+255),w,b
  6279  0064F0  0A59               	xorlw	89
  6280  0064F2  A4D8               	btfss	status,2,c
  6281  0064F4  D031               	goto	i2l3585
  6282                           
  6283                           ; BSR set to: 0
  6284  0064F6  0447               	decf	_n,w,c
  6285  0064F8  B4D8               	btfsc	status,2,c
  6286  0064FA  D021               	goto	i2l3583
  6287  0064FC  D02D               	goto	i2l3585
  6288  0064FE                     i2l3569:
  6289  0064FE  0E7C               	movlw	124
  6290  006500  6E02               	movwf	nivel_alto@pino+1,c
  6291  006502  0E0F               	movlw	15
  6292  006504  6E01               	movwf	nivel_alto@pino,c
  6293  006506  ECE6  F030         	call	_nivel_alto	;wreg free
  6294  00650A  D014               	goto	L10
  6295  00650C                     i2l3573:
  6296  00650C  0E7C               	movlw	124
  6297  00650E  6E02               	movwf	nivel_baixo@pino+1,c
  6298  006510  0E0F               	movlw	15
  6299  006512  6E01               	movwf	nivel_baixo@pino,c
  6300  006514  EC7E  F031         	call	_nivel_baixo	;wreg free
  6301                           
  6302                           ;WiflySanUSB.c: 88: break;
  6303  006518  D01F               	goto	i2l3585
  6304  00651A                     i2l3575:
  6305  00651A  0E7C               	movlw	124
  6306  00651C  6E02               	movwf	nivel_alto@pino+1,c
  6307  00651E  0E0F               	movlw	15
  6308  006520  6E01               	movwf	nivel_alto@pino,c
  6309  006522  ECE6  F030         	call	_nivel_alto	;wreg free
  6310                           
  6311                           ;WiflySanUSB.c: 91: break;
  6312  006526  D018               	goto	i2l3585
  6313  006528                     i2l3577:
  6314  006528  0E7C               	movlw	124
  6315  00652A  6E02               	movwf	i2inverte_saida@pino+1,c
  6316  00652C  0E0F               	movlw	15
  6317  00652E  6E01               	movwf	i2inverte_saida@pino,c
  6318  006530  EC55  F02F         	call	i2_inverte_saida	;wreg free
  6319  006534                     L10:
  6320                           
  6321                           ;WiflySanUSB.c: 94: flagsw=1;
  6322  006534  0E00               	movlw	0
  6323  006536  6E3D               	movwf	_flagsw+1,c
  6324  006538  0E01               	movlw	1
  6325  00653A  6E3C               	movwf	_flagsw,c
  6326                           
  6327                           ;WiflySanUSB.c: 95: break;
  6328  00653C  D00D               	goto	i2l3585
  6329  00653E                     i2l3583:
  6330  00653E  50AE               	movf	4014,w,c	;volatile
  6331                           
  6332                           ; Switch size 1, requested type "space"
  6333                           ; Number of cases is 4, Range of values is 68 to 84
  6334                           ; switch strategies available:
  6335                           ; Name         Instructions Cycles
  6336                           ; simple_byte           13     7 (average)
  6337                           ;	Chosen strategy is simple_byte
  6338  006540  0A44               	xorlw	68	; case 68
  6339  006542  B4D8               	btfsc	status,2,c
  6340  006544  D7E3               	goto	i2l3573
  6341  006546  0A08               	xorlw	8	; case 76
  6342  006548  B4D8               	btfsc	status,2,c
  6343  00654A  D7D9               	goto	i2l3569
  6344  00654C  0A1C               	xorlw	28	; case 80
  6345  00654E  B4D8               	btfsc	status,2,c
  6346  006550  D7E4               	goto	i2l3575
  6347  006552  0A04               	xorlw	4	; case 84
  6348  006554  B4D8               	btfsc	status,2,c
  6349  006556  D7E8               	goto	i2l3577
  6350  006558                     i2l3585:
  6351                           
  6352                           ;WiflySanUSB.c: 98: }
  6353                           ;WiflySanUSB.c: 100: if ( comando[1]== 'O' && comando[2]== 'N')
  6354  006558  0100               	movlb	0	; () banked
  6355  00655A  0100               	movlb	0	; () banked
  6356  00655C  5161               	movf	(_comando+1)& (0+255),w,b
  6357  00655E  0A4F               	xorlw	79
  6358  006560  A4D8               	btfss	status,2,c
  6359  006562  D00C               	goto	i2l3591
  6360                           
  6361                           ; BSR set to: 0
  6362  006564  0100               	movlb	0	; () banked
  6363  006566  0100               	movlb	0	; () banked
  6364  006568  5162               	movf	(_comando+2)& (0+255),w,b
  6365  00656A  0A4E               	xorlw	78
  6366  00656C  A4D8               	btfss	status,2,c
  6367  00656E  D006               	goto	i2l3591
  6368                           
  6369                           ; BSR set to: 0
  6370                           ;WiflySanUSB.c: 101: {
  6371                           ;WiflySanUSB.c: 102: nivel_alto(31759);
  6372  006570  0E7C               	movlw	124
  6373  006572  6E02               	movwf	nivel_alto@pino+1,c
  6374  006574  0E0F               	movlw	15
  6375  006576  6E01               	movwf	nivel_alto@pino,c
  6376  006578  ECE6  F030         	call	_nivel_alto	;wreg free
  6377  00657C                     i2l3591:
  6378                           
  6379                           ;WiflySanUSB.c: 103: }
  6380                           ;WiflySanUSB.c: 105: if ( comando[1]== 'O' && comando[2]== 'F' && comando[3]== 'F')
  6381  00657C  0100               	movlb	0	; () banked
  6382  00657E  0100               	movlb	0	; () banked
  6383  006580  5161               	movf	(_comando+1)& (0+255),w,b
  6384  006582  0A4F               	xorlw	79
  6385  006584  A4D8               	btfss	status,2,c
  6386  006586  D012               	goto	i2l3599
  6387                           
  6388                           ; BSR set to: 0
  6389  006588  0100               	movlb	0	; () banked
  6390  00658A  0100               	movlb	0	; () banked
  6391  00658C  5162               	movf	(_comando+2)& (0+255),w,b
  6392  00658E  0A46               	xorlw	70
  6393  006590  A4D8               	btfss	status,2,c
  6394  006592  D00C               	goto	i2l3599
  6395                           
  6396                           ; BSR set to: 0
  6397  006594  0100               	movlb	0	; () banked
  6398  006596  0100               	movlb	0	; () banked
  6399  006598  5163               	movf	(_comando+3)& (0+255),w,b
  6400  00659A  0A46               	xorlw	70
  6401  00659C  A4D8               	btfss	status,2,c
  6402  00659E  D006               	goto	i2l3599
  6403                           
  6404                           ; BSR set to: 0
  6405                           ;WiflySanUSB.c: 106: {
  6406                           ;WiflySanUSB.c: 108: nivel_baixo(31759);
  6407  0065A0  0E7C               	movlw	124
  6408  0065A2  6E02               	movwf	nivel_baixo@pino+1,c
  6409  0065A4  0E0F               	movlw	15
  6410  0065A6  6E01               	movwf	nivel_baixo@pino,c
  6411  0065A8  EC7E  F031         	call	_nivel_baixo	;wreg free
  6412  0065AC                     i2l3599:
  6413                           
  6414                           ;WiflySanUSB.c: 109: }
  6415                           ;WiflySanUSB.c: 110: ++n; if(n>=64){n=0;}
  6416  0065AC  2A47               	incf	_n,f,c
  6417  0065AE  0E3F               	movlw	63
  6418  0065B0  6447               	cpfsgt	_n,c
  6419  0065B2  D004               	goto	i2l499
  6420  0065B4  6E05               	movwf	??_interrupcao& (0+255),c
  6421  0065B6  0E00               	movlw	0
  6422  0065B8  6E47               	movwf	_n,c
  6423  0065BA  5005               	movf	??_interrupcao& (0+255),w,c
  6424  0065BC                     i2l499:
  6425  0065BC  C013  FFF5         	movff	??_interrupcao+14,tablat
  6426  0065C0  C012  FFF8         	movff	??_interrupcao+13,tblptru
  6427  0065C4  C011  FFF7         	movff	??_interrupcao+12,tblptrh
  6428  0065C8  C010  FFF6         	movff	??_interrupcao+11,tblptrl
  6429  0065CC  C00F  FFF4         	movff	??_interrupcao+10,prodh
  6430  0065D0  C00E  FFF3         	movff	??_interrupcao+9,prodl
  6431  0065D4  C00D  FFDA         	movff	??_interrupcao+8,fsr2h
  6432  0065D8  C00C  FFD9         	movff	??_interrupcao+7,fsr2l
  6433  0065DC  C00B  FFE2         	movff	??_interrupcao+6,fsr1h
  6434  0065E0  C00A  FFE1         	movff	??_interrupcao+5,fsr1l
  6435  0065E4  C009  FFEA         	movff	??_interrupcao+4,fsr0h
  6436  0065E8  C008  FFE9         	movff	??_interrupcao+3,fsr0l
  6437  0065EC  C007  FFFB         	movff	??_interrupcao+2,pclatu
  6438  0065F0  C006  FFFA         	movff	??_interrupcao+1,pclath
  6439  0065F4  0011               	retfie		f
  6440  0065F6                     __end_of_interrupcao:
  6441                           	opt stack 0
  6442                           pclatu	equ	0xFFB
  6443                           pclath	equ	0xFFA
  6444                           tblptru	equ	0xFF8
  6445                           tblptrh	equ	0xFF7
  6446                           tblptrl	equ	0xFF6
  6447                           tablat	equ	0xFF5
  6448                           prodh	equ	0xFF4
  6449                           prodl	equ	0xFF3
  6450                           intcon	equ	0xFF2
  6451                           intcon2	equ	0xFF1
  6452                           intcon3	equ	0xFF0
  6453                           postinc0	equ	0xFEE
  6454                           fsr0h	equ	0xFEA
  6455                           fsr0l	equ	0xFE9
  6456                           wreg	equ	0xFE8
  6457                           postdec1	equ	0xFE5
  6458                           fsr1h	equ	0xFE2
  6459                           fsr1l	equ	0xFE1
  6460                           indf2	equ	0xFDF
  6461                           fsr2h	equ	0xFDA
  6462                           fsr2l	equ	0xFD9
  6463                           status	equ	0xFD8
  6464                           
  6465 ;; *************** function i2_inverte_saida *****************
  6466 ;; Defined at:
  6467 ;;		line 229 in file "SanUSB48X.h"
  6468 ;; Parameters:    Size  Location     Type
  6469 ;;  pino            2    0[COMRAM] unsigned int 
  6470 ;; Auto vars:     Size  Location     Type
  6471 ;;		None
  6472 ;; Return value:  Size  Location     Type
  6473 ;;		None               void
  6474 ;; Registers used:
  6475 ;;		wreg, status,2, status,0
  6476 ;; Tracked objects:
  6477 ;;		On entry : 0/0
  6478 ;;		On exit  : 0/0
  6479 ;;		Unchanged: 0/0
  6480 ;; Data sizes:     COMRAM   BANK0   BANK1   BANK2   BANK3   BANK4   BANK5   BANK6   BANK7
  6481 ;;      Params:         2       0       0       0       0       0       0       0       0
  6482 ;;      Locals:         0       0       0       0       0       0       0       0       0
  6483 ;;      Temps:          2       0       0       0       0       0       0       0       0
  6484 ;;      Totals:         4       0       0       0       0       0       0       0       0
  6485 ;;Total ram usage:        4 bytes
  6486 ;; Hardware stack levels used:    1
  6487 ;; This function calls:
  6488 ;;		Nothing
  6489 ;; This function is called by:
  6490 ;;		_interrupcao
  6491 ;; This function uses a non-reentrant model
  6492 ;;
  6493                           
  6494                           	psect	text21
  6495  005EAA                     __ptext21:
  6496                           	opt stack 0
  6497  005EAA                     i2_inverte_saida:
  6498                           	opt stack 26
  6499                           
  6500                           ;SanUSB48X.h: 231: switch(pino){
  6501                           
  6502                           ;incstack = 0
  6503  005EAA  D03C               	goto	i2l3533
  6504  005EAC                     i2l232:
  6505  005EAC  9092               	bcf	3986,0,c	;volatile
  6506  005EAE  7080               	btg	3968,0,c	;volatile
  6507  005EB0  D07E               	goto	i2l253
  6508  005EB2                     i2l234:
  6509  005EB2  9292               	bcf	3986,1,c	;volatile
  6510  005EB4  7280               	btg	3968,1,c	;volatile
  6511  005EB6  D07B               	goto	i2l253
  6512  005EB8                     i2l235:
  6513  005EB8  9492               	bcf	3986,2,c	;volatile
  6514  005EBA  7480               	btg	3968,2,c	;volatile
  6515  005EBC  D078               	goto	i2l253
  6516  005EBE                     i2l236:
  6517  005EBE  9692               	bcf	3986,3,c	;volatile
  6518  005EC0  7680               	btg	3968,3,c	;volatile
  6519  005EC2  D075               	goto	i2l253
  6520  005EC4                     i2l237:
  6521  005EC4  9892               	bcf	3986,4,c	;volatile
  6522  005EC6  7880               	btg	3968,4,c	;volatile
  6523  005EC8  D072               	goto	i2l253
  6524  005ECA                     i2l238:
  6525  005ECA  9A92               	bcf	3986,5,c	;volatile
  6526  005ECC  7A80               	btg	3968,5,c	;volatile
  6527  005ECE  D06F               	goto	i2l253
  6528  005ED0                     i2l239:
  6529  005ED0  9093               	bcf	3987,0,c	;volatile
  6530  005ED2  7081               	btg	3969,0,c	;volatile
  6531  005ED4  D06C               	goto	i2l253
  6532  005ED6                     i2l240:
  6533  005ED6  9293               	bcf	3987,1,c	;volatile
  6534  005ED8  7281               	btg	3969,1,c	;volatile
  6535  005EDA  D069               	goto	i2l253
  6536  005EDC                     i2l241:
  6537  005EDC  9493               	bcf	3987,2,c	;volatile
  6538  005EDE  7481               	btg	3969,2,c	;volatile
  6539  005EE0  D066               	goto	i2l253
  6540  005EE2                     i2l242:
  6541  005EE2  9693               	bcf	3987,3,c	;volatile
  6542  005EE4  7681               	btg	3969,3,c	;volatile
  6543  005EE6  D063               	goto	i2l253
  6544  005EE8                     i2l243:
  6545  005EE8  9893               	bcf	3987,4,c	;volatile
  6546  005EEA  7881               	btg	3969,4,c	;volatile
  6547  005EEC  D060               	goto	i2l253
  6548  005EEE                     i2l244:
  6549  005EEE  9A93               	bcf	3987,5,c	;volatile
  6550  005EF0  7A81               	btg	3969,5,c	;volatile
  6551  005EF2  D05D               	goto	i2l253
  6552  005EF4                     i2l245:
  6553  005EF4  9C93               	bcf	3987,6,c	;volatile
  6554  005EF6  7C81               	btg	3969,6,c	;volatile
  6555  005EF8  D05A               	goto	i2l253
  6556  005EFA                     i2l246:
  6557  005EFA  9E93               	bcf	3987,7,c	;volatile
  6558  005EFC  7E81               	btg	3969,7,c	;volatile
  6559  005EFE  D057               	goto	i2l253
  6560  005F00                     i2l247:
  6561  005F00  9094               	bcf	3988,0,c	;volatile
  6562  005F02  7082               	btg	3970,0,c	;volatile
  6563  005F04  D054               	goto	i2l253
  6564  005F06                     i2l248:
  6565  005F06  9294               	bcf	3988,1,c	;volatile
  6566  005F08  7282               	btg	3970,1,c	;volatile
  6567  005F0A  D051               	goto	i2l253
  6568  005F0C                     i2l249:
  6569  005F0C  9494               	bcf	3988,2,c	;volatile
  6570  005F0E  7482               	btg	3970,2,c	;volatile
  6571  005F10  D04E               	goto	i2l253
  6572  005F12                     i2l250:
  6573  005F12  9C94               	bcf	3988,6,c	;volatile
  6574  005F14  7C82               	btg	3970,6,c	;volatile
  6575  005F16  D04B               	goto	i2l253
  6576  005F18                     i2l251:
  6577  005F18  9E94               	bcf	3988,7,c	;volatile
  6578  005F1A  7E82               	btg	3970,7,c	;volatile
  6579  005F1C  D048               	goto	i2l253
  6580  005F1E                     i2l252:
  6581  005F1E  9E95               	bcf	3989,7,c	;volatile
  6582  005F20  7E83               	btg	3971,7,c	;volatile
  6583  005F22  D045               	goto	i2l253
  6584  005F24                     i2l3533:
  6585  005F24  C001  F003         	movff	i2inverte_saida@pino,??i2_inverte_saida
  6586  005F28  C002  F004         	movff	i2inverte_saida@pino+1,??i2_inverte_saida+1
  6587                           
  6588                           ; Switch on 2 bytes has been partitioned into a top level switch of size 1, and 1 sub-sw
      +                          itches
  6589                           ; Switch size 1, requested type "space"
  6590                           ; Number of cases is 1, Range of values is 124 to 124
  6591                           ; switch strategies available:
  6592                           ; Name         Instructions Cycles
  6593                           ; simple_byte            4     3 (average)
  6594                           ;	Chosen strategy is simple_byte
  6595  005F2C  5004               	movf	??i2_inverte_saida+1,w,c
  6596  005F2E  0A7C               	xorlw	124	; case 124
  6597  005F30  A4D8               	btfss	status,2,c
  6598  005F32  D03D               	goto	i2l253
  6599                           
  6600                           ; Switch size 1, requested type "space"
  6601                           ; Number of cases is 20, Range of values is 0 to 31
  6602                           ; switch strategies available:
  6603                           ; Name         Instructions Cycles
  6604                           ; simple_byte           61    31 (average)
  6605                           ;	Chosen strategy is simple_byte
  6606  005F34  5003               	movf	??i2_inverte_saida,w,c
  6607  005F36  0A00               	xorlw	0	; case 0
  6608  005F38  B4D8               	btfsc	status,2,c
  6609  005F3A  D7B8               	goto	i2l232
  6610  005F3C  0A01               	xorlw	1	; case 1
  6611  005F3E  B4D8               	btfsc	status,2,c
  6612  005F40  D7B8               	goto	i2l234
  6613  005F42  0A03               	xorlw	3	; case 2
  6614  005F44  B4D8               	btfsc	status,2,c
  6615  005F46  D7B8               	goto	i2l235
  6616  005F48  0A01               	xorlw	1	; case 3
  6617  005F4A  B4D8               	btfsc	status,2,c
  6618  005F4C  D7B8               	goto	i2l236
  6619  005F4E  0A07               	xorlw	7	; case 4
  6620  005F50  B4D8               	btfsc	status,2,c
  6621  005F52  D7B8               	goto	i2l237
  6622  005F54  0A01               	xorlw	1	; case 5
  6623  005F56  B4D8               	btfsc	status,2,c
  6624  005F58  D7B8               	goto	i2l238
  6625  005F5A  0A0D               	xorlw	13	; case 8
  6626  005F5C  B4D8               	btfsc	status,2,c
  6627  005F5E  D7B8               	goto	i2l239
  6628  005F60  0A01               	xorlw	1	; case 9
  6629  005F62  B4D8               	btfsc	status,2,c
  6630  005F64  D7B8               	goto	i2l240
  6631  005F66  0A03               	xorlw	3	; case 10
  6632  005F68  B4D8               	btfsc	status,2,c
  6633  005F6A  D7B8               	goto	i2l241
  6634  005F6C  0A01               	xorlw	1	; case 11
  6635  005F6E  B4D8               	btfsc	status,2,c
  6636  005F70  D7B8               	goto	i2l242
  6637  005F72  0A07               	xorlw	7	; case 12
  6638  005F74  B4D8               	btfsc	status,2,c
  6639  005F76  D7B8               	goto	i2l243
  6640  005F78  0A01               	xorlw	1	; case 13
  6641  005F7A  B4D8               	btfsc	status,2,c
  6642  005F7C  D7B8               	goto	i2l244
  6643  005F7E  0A03               	xorlw	3	; case 14
  6644  005F80  B4D8               	btfsc	status,2,c
  6645  005F82  D7B8               	goto	i2l245
  6646  005F84  0A01               	xorlw	1	; case 15
  6647  005F86  B4D8               	btfsc	status,2,c
  6648  005F88  D7B8               	goto	i2l246
  6649  005F8A  0A1F               	xorlw	31	; case 16
  6650  005F8C  B4D8               	btfsc	status,2,c
  6651  005F8E  D7B8               	goto	i2l247
  6652  005F90  0A01               	xorlw	1	; case 17
  6653  005F92  B4D8               	btfsc	status,2,c
  6654  005F94  D7B8               	goto	i2l248
  6655  005F96  0A03               	xorlw	3	; case 18
  6656  005F98  B4D8               	btfsc	status,2,c
  6657  005F9A  D7B8               	goto	i2l249
  6658  005F9C  0A04               	xorlw	4	; case 22
  6659  005F9E  B4D8               	btfsc	status,2,c
  6660  005FA0  D7B8               	goto	i2l250
  6661  005FA2  0A01               	xorlw	1	; case 23
  6662  005FA4  B4D8               	btfsc	status,2,c
  6663  005FA6  D7B8               	goto	i2l251
  6664  005FA8  0A08               	xorlw	8	; case 31
  6665  005FAA  B4D8               	btfsc	status,2,c
  6666  005FAC  D7B8               	goto	i2l252
  6667  005FAE                     i2l253:
  6668  005FAE  0012               	return	
  6669  005FB0                     __end_ofi2_inverte_saida:
  6670                           	opt stack 0
  6671                           pclatu	equ	0xFFB
  6672                           pclath	equ	0xFFA
  6673                           tblptru	equ	0xFF8
  6674                           tblptrh	equ	0xFF7
  6675                           tblptrl	equ	0xFF6
  6676                           tablat	equ	0xFF5
  6677                           prodh	equ	0xFF4
  6678                           prodl	equ	0xFF3
  6679                           intcon	equ	0xFF2
  6680                           intcon2	equ	0xFF1
  6681                           intcon3	equ	0xFF0
  6682                           postinc0	equ	0xFEE
  6683                           fsr0h	equ	0xFEA
  6684                           fsr0l	equ	0xFE9
  6685                           wreg	equ	0xFE8
  6686                           postdec1	equ	0xFE5
  6687                           fsr1h	equ	0xFE2
  6688                           fsr1l	equ	0xFE1
  6689                           indf2	equ	0xFDF
  6690                           fsr2h	equ	0xFDA
  6691                           fsr2l	equ	0xFD9
  6692                           status	equ	0xFD8
  6693                           
  6694 ;; *************** function _nivel_baixo *****************
  6695 ;; Defined at:
  6696 ;;		line 200 in file "SanUSB48X.h"
  6697 ;; Parameters:    Size  Location     Type
  6698 ;;  pino            2    0[COMRAM] unsigned int 
  6699 ;; Auto vars:     Size  Location     Type
  6700 ;;		None
  6701 ;; Return value:  Size  Location     Type
  6702 ;;		None               void
  6703 ;; Registers used:
  6704 ;;		wreg, status,2, status,0
  6705 ;; Tracked objects:
  6706 ;;		On entry : 0/0
  6707 ;;		On exit  : 0/0
  6708 ;;		Unchanged: 0/0
  6709 ;; Data sizes:     COMRAM   BANK0   BANK1   BANK2   BANK3   BANK4   BANK5   BANK6   BANK7
  6710 ;;      Params:         2       0       0       0       0       0       0       0       0
  6711 ;;      Locals:         0       0       0       0       0       0       0       0       0
  6712 ;;      Temps:          2       0       0       0       0       0       0       0       0
  6713 ;;      Totals:         4       0       0       0       0       0       0       0       0
  6714 ;;Total ram usage:        4 bytes
  6715 ;; Hardware stack levels used:    1
  6716 ;; This function calls:
  6717 ;;		Nothing
  6718 ;; This function is called by:
  6719 ;;		_interrupcao
  6720 ;; This function uses a non-reentrant model
  6721 ;;
  6722                           
  6723                           	psect	text22
  6724  0062FC                     __ptext22:
  6725                           	opt stack 0
  6726  0062FC                     _nivel_baixo:
  6727                           	opt stack 26
  6728                           
  6729                           ;SanUSB48X.h: 202: switch(pino){
  6730                           
  6731                           ;incstack = 0
  6732  0062FC  D048               	goto	i2l3503
  6733  0062FE                     i2l205:
  6734  0062FE  9092               	bcf	3986,0,c	;volatile
  6735  006300  9080               	bcf	3968,0,c	;volatile
  6736  006302  D096               	goto	i2l228
  6737  006304                     i2l207:
  6738  006304  9292               	bcf	3986,1,c	;volatile
  6739  006306  9280               	bcf	3968,1,c	;volatile
  6740  006308  D093               	goto	i2l228
  6741  00630A                     i2l208:
  6742  00630A  9492               	bcf	3986,2,c	;volatile
  6743  00630C  9480               	bcf	3968,2,c	;volatile
  6744  00630E  D090               	goto	i2l228
  6745  006310                     i2l209:
  6746  006310  9692               	bcf	3986,3,c	;volatile
  6747  006312  9680               	bcf	3968,3,c	;volatile
  6748  006314  D08D               	goto	i2l228
  6749  006316                     i2l210:
  6750  006316  9892               	bcf	3986,4,c	;volatile
  6751  006318  9880               	bcf	3968,4,c	;volatile
  6752  00631A  D08A               	goto	i2l228
  6753  00631C                     i2l211:
  6754  00631C  9A92               	bcf	3986,5,c	;volatile
  6755  00631E  9A80               	bcf	3968,5,c	;volatile
  6756  006320  D087               	goto	i2l228
  6757  006322                     i2l3495:
  6758  006322  0E00               	movlw	0
  6759  006324  6E92               	movwf	3986,c	;volatile
  6760  006326  0E00               	movlw	0
  6761  006328  6E89               	movwf	3977,c	;volatile
  6762  00632A  D082               	goto	i2l228
  6763  00632C                     i2l213:
  6764  00632C  9093               	bcf	3987,0,c	;volatile
  6765  00632E  9081               	bcf	3969,0,c	;volatile
  6766  006330  D07F               	goto	i2l228
  6767  006332                     i2l214:
  6768  006332  9293               	bcf	3987,1,c	;volatile
  6769  006334  9281               	bcf	3969,1,c	;volatile
  6770  006336  D07C               	goto	i2l228
  6771  006338                     i2l215:
  6772  006338  9493               	bcf	3987,2,c	;volatile
  6773  00633A  9481               	bcf	3969,2,c	;volatile
  6774  00633C  D079               	goto	i2l228
  6775  00633E                     i2l216:
  6776  00633E  9693               	bcf	3987,3,c	;volatile
  6777  006340  9681               	bcf	3969,3,c	;volatile
  6778  006342  D076               	goto	i2l228
  6779  006344                     i2l217:
  6780  006344  9893               	bcf	3987,4,c	;volatile
  6781  006346  9881               	bcf	3969,4,c	;volatile
  6782  006348  D073               	goto	i2l228
  6783  00634A                     i2l218:
  6784  00634A  9A93               	bcf	3987,5,c	;volatile
  6785  00634C  9A81               	bcf	3969,5,c	;volatile
  6786  00634E  D070               	goto	i2l228
  6787  006350                     i2l219:
  6788  006350  9C93               	bcf	3987,6,c	;volatile
  6789  006352  9C81               	bcf	3969,6,c	;volatile
  6790  006354  D06D               	goto	i2l228
  6791  006356                     i2l220:
  6792  006356  9E93               	bcf	3987,7,c	;volatile
  6793  006358  9E81               	bcf	3969,7,c	;volatile
  6794  00635A  D06A               	goto	i2l228
  6795  00635C                     i2l3497:
  6796  00635C  0E00               	movlw	0
  6797  00635E  6E93               	movwf	3987,c	;volatile
  6798  006360  0E00               	movlw	0
  6799  006362  6E8A               	movwf	3978,c	;volatile
  6800  006364  D065               	goto	i2l228
  6801  006366                     i2l222:
  6802  006366  9094               	bcf	3988,0,c	;volatile
  6803  006368  9082               	bcf	3970,0,c	;volatile
  6804  00636A  D062               	goto	i2l228
  6805  00636C                     i2l223:
  6806  00636C  9294               	bcf	3988,1,c	;volatile
  6807  00636E  9282               	bcf	3970,1,c	;volatile
  6808  006370  D05F               	goto	i2l228
  6809  006372                     i2l224:
  6810  006372  9494               	bcf	3988,2,c	;volatile
  6811  006374  9482               	bcf	3970,2,c	;volatile
  6812  006376  D05C               	goto	i2l228
  6813  006378                     i2l225:
  6814  006378  9C94               	bcf	3988,6,c	;volatile
  6815  00637A  9C82               	bcf	3970,6,c	;volatile
  6816  00637C  D059               	goto	i2l228
  6817  00637E                     i2l226:
  6818  00637E  9E94               	bcf	3988,7,c	;volatile
  6819  006380  9E82               	bcf	3970,7,c	;volatile
  6820  006382  D056               	goto	i2l228
  6821  006384                     i2l3499:
  6822  006384  0E00               	movlw	0
  6823  006386  6E94               	movwf	3988,c	;volatile
  6824  006388  0E00               	movlw	0
  6825  00638A  6E8B               	movwf	3979,c	;volatile
  6826  00638C  D051               	goto	i2l228
  6827  00638E                     i2l3503:
  6828  00638E  C001  F003         	movff	nivel_baixo@pino,??_nivel_baixo
  6829  006392  C002  F004         	movff	nivel_baixo@pino+1,??_nivel_baixo+1
  6830                           
  6831                           ; Switch on 2 bytes has been partitioned into a top level switch of size 1, and 2 sub-sw
      +                          itches
  6832                           ; Switch size 1, requested type "space"
  6833                           ; Number of cases is 2, Range of values is 15 to 124
  6834                           ; switch strategies available:
  6835                           ; Name         Instructions Cycles
  6836                           ; simple_byte            7     4 (average)
  6837                           ;	Chosen strategy is simple_byte
  6838  006396  5004               	movf	??_nivel_baixo+1,w,c
  6839  006398  0A0F               	xorlw	15	; case 15
  6840  00639A  B4D8               	btfsc	status,2,c
  6841  00639C  D004               	goto	i2l3817
  6842  00639E  0A73               	xorlw	115	; case 124
  6843  0063A0  B4D8               	btfsc	status,2,c
  6844  0063A2  D00C               	goto	i2l3819
  6845  0063A4  D045               	goto	i2l228
  6846  0063A6                     i2l3817:
  6847                           
  6848                           ; Switch size 1, requested type "space"
  6849                           ; Number of cases is 3, Range of values is 128 to 130
  6850                           ; switch strategies available:
  6851                           ; Name         Instructions Cycles
  6852                           ; simple_byte           10     6 (average)
  6853                           ;	Chosen strategy is simple_byte
  6854  0063A6  5003               	movf	??_nivel_baixo,w,c
  6855  0063A8  0A80               	xorlw	128	; case 128
  6856  0063AA  B4D8               	btfsc	status,2,c
  6857  0063AC  D7BA               	goto	i2l3495
  6858  0063AE  0A01               	xorlw	1	; case 129
  6859  0063B0  B4D8               	btfsc	status,2,c
  6860  0063B2  D7D4               	goto	i2l3497
  6861  0063B4  0A03               	xorlw	3	; case 130
  6862  0063B6  B4D8               	btfsc	status,2,c
  6863  0063B8  D7E5               	goto	i2l3499
  6864  0063BA  D03A               	goto	i2l228
  6865  0063BC                     i2l3819:
  6866                           
  6867                           ; Switch size 1, requested type "space"
  6868                           ; Number of cases is 19, Range of values is 0 to 23
  6869                           ; switch strategies available:
  6870                           ; Name         Instructions Cycles
  6871                           ; simple_byte           58    30 (average)
  6872                           ;	Chosen strategy is simple_byte
  6873  0063BC  5003               	movf	??_nivel_baixo,w,c
  6874  0063BE  0A00               	xorlw	0	; case 0
  6875  0063C0  B4D8               	btfsc	status,2,c
  6876  0063C2  D79D               	goto	i2l205
  6877  0063C4  0A01               	xorlw	1	; case 1
  6878  0063C6  B4D8               	btfsc	status,2,c
  6879  0063C8  D79D               	goto	i2l207
  6880  0063CA  0A03               	xorlw	3	; case 2
  6881  0063CC  B4D8               	btfsc	status,2,c
  6882  0063CE  D79D               	goto	i2l208
  6883  0063D0  0A01               	xorlw	1	; case 3
  6884  0063D2  B4D8               	btfsc	status,2,c
  6885  0063D4  D79D               	goto	i2l209
  6886  0063D6  0A07               	xorlw	7	; case 4
  6887  0063D8  B4D8               	btfsc	status,2,c
  6888  0063DA  D79D               	goto	i2l210
  6889  0063DC  0A01               	xorlw	1	; case 5
  6890  0063DE  B4D8               	btfsc	status,2,c
  6891  0063E0  D79D               	goto	i2l211
  6892  0063E2  0A0D               	xorlw	13	; case 8
  6893  0063E4  B4D8               	btfsc	status,2,c
  6894  0063E6  D7A2               	goto	i2l213
  6895  0063E8  0A01               	xorlw	1	; case 9
  6896  0063EA  B4D8               	btfsc	status,2,c
  6897  0063EC  D7A2               	goto	i2l214
  6898  0063EE  0A03               	xorlw	3	; case 10
  6899  0063F0  B4D8               	btfsc	status,2,c
  6900  0063F2  D7A2               	goto	i2l215
  6901  0063F4  0A01               	xorlw	1	; case 11
  6902  0063F6  B4D8               	btfsc	status,2,c
  6903  0063F8  D7A2               	goto	i2l216
  6904  0063FA  0A07               	xorlw	7	; case 12
  6905  0063FC  B4D8               	btfsc	status,2,c
  6906  0063FE  D7A2               	goto	i2l217
  6907  006400  0A01               	xorlw	1	; case 13
  6908  006402  B4D8               	btfsc	status,2,c
  6909  006404  D7A2               	goto	i2l218
  6910  006406  0A03               	xorlw	3	; case 14
  6911  006408  B4D8               	btfsc	status,2,c
  6912  00640A  D7A2               	goto	i2l219
  6913  00640C  0A01               	xorlw	1	; case 15
  6914  00640E  B4D8               	btfsc	status,2,c
  6915  006410  D7A2               	goto	i2l220
  6916  006412  0A1F               	xorlw	31	; case 16
  6917  006414  B4D8               	btfsc	status,2,c
  6918  006416  D7A7               	goto	i2l222
  6919  006418  0A01               	xorlw	1	; case 17
  6920  00641A  B4D8               	btfsc	status,2,c
  6921  00641C  D7A7               	goto	i2l223
  6922  00641E  0A03               	xorlw	3	; case 18
  6923  006420  B4D8               	btfsc	status,2,c
  6924  006422  D7A7               	goto	i2l224
  6925  006424  0A04               	xorlw	4	; case 22
  6926  006426  B4D8               	btfsc	status,2,c
  6927  006428  D7A7               	goto	i2l225
  6928  00642A  0A01               	xorlw	1	; case 23
  6929  00642C  B4D8               	btfsc	status,2,c
  6930  00642E  D7A7               	goto	i2l226
  6931  006430                     i2l228:
  6932  006430  0012               	return	
  6933  006432                     __end_of_nivel_baixo:
  6934                           	opt stack 0
  6935                           pclatu	equ	0xFFB
  6936                           pclath	equ	0xFFA
  6937                           tblptru	equ	0xFF8
  6938                           tblptrh	equ	0xFF7
  6939                           tblptrl	equ	0xFF6
  6940                           tablat	equ	0xFF5
  6941                           prodh	equ	0xFF4
  6942                           prodl	equ	0xFF3
  6943                           intcon	equ	0xFF2
  6944                           intcon2	equ	0xFF1
  6945                           intcon3	equ	0xFF0
  6946                           postinc0	equ	0xFEE
  6947                           fsr0h	equ	0xFEA
  6948                           fsr0l	equ	0xFE9
  6949                           wreg	equ	0xFE8
  6950                           postdec1	equ	0xFE5
  6951                           fsr1h	equ	0xFE2
  6952                           fsr1l	equ	0xFE1
  6953                           indf2	equ	0xFDF
  6954                           fsr2h	equ	0xFDA
  6955                           fsr2l	equ	0xFD9
  6956                           status	equ	0xFD8
  6957                           
  6958 ;; *************** function _nivel_alto *****************
  6959 ;; Defined at:
  6960 ;;		line 170 in file "SanUSB48X.h"
  6961 ;; Parameters:    Size  Location     Type
  6962 ;;  pino            2    0[COMRAM] unsigned int 
  6963 ;; Auto vars:     Size  Location     Type
  6964 ;;		None
  6965 ;; Return value:  Size  Location     Type
  6966 ;;		None               void
  6967 ;; Registers used:
  6968 ;;		wreg, status,2, status,0
  6969 ;; Tracked objects:
  6970 ;;		On entry : 0/0
  6971 ;;		On exit  : 0/0
  6972 ;;		Unchanged: 0/0
  6973 ;; Data sizes:     COMRAM   BANK0   BANK1   BANK2   BANK3   BANK4   BANK5   BANK6   BANK7
  6974 ;;      Params:         2       0       0       0       0       0       0       0       0
  6975 ;;      Locals:         0       0       0       0       0       0       0       0       0
  6976 ;;      Temps:          2       0       0       0       0       0       0       0       0
  6977 ;;      Totals:         4       0       0       0       0       0       0       0       0
  6978 ;;Total ram usage:        4 bytes
  6979 ;; Hardware stack levels used:    1
  6980 ;; This function calls:
  6981 ;;		Nothing
  6982 ;; This function is called by:
  6983 ;;		_interrupcao
  6984 ;; This function uses a non-reentrant model
  6985 ;;
  6986                           
  6987                           	psect	text23
  6988  0061CC                     __ptext23:
  6989                           	opt stack 0
  6990  0061CC                     _nivel_alto:
  6991                           	opt stack 26
  6992                           
  6993                           ;SanUSB48X.h: 173: switch(pino){
  6994                           
  6995                           ;incstack = 0
  6996  0061CC  D045               	goto	i2l3483
  6997  0061CE                     i2l178:
  6998  0061CE  9092               	bcf	3986,0,c	;volatile
  6999  0061D0  8080               	bsf	3968,0,c	;volatile
  7000  0061D2  D093               	goto	i2l201
  7001  0061D4                     i2l180:
  7002  0061D4  9292               	bcf	3986,1,c	;volatile
  7003  0061D6  8280               	bsf	3968,1,c	;volatile
  7004  0061D8  D090               	goto	i2l201
  7005  0061DA                     i2l181:
  7006  0061DA  9492               	bcf	3986,2,c	;volatile
  7007  0061DC  8480               	bsf	3968,2,c	;volatile
  7008  0061DE  D08D               	goto	i2l201
  7009  0061E0                     i2l182:
  7010  0061E0  9692               	bcf	3986,3,c	;volatile
  7011  0061E2  8680               	bsf	3968,3,c	;volatile
  7012  0061E4  D08A               	goto	i2l201
  7013  0061E6                     i2l183:
  7014  0061E6  9892               	bcf	3986,4,c	;volatile
  7015  0061E8  8880               	bsf	3968,4,c	;volatile
  7016  0061EA  D087               	goto	i2l201
  7017  0061EC                     i2l184:
  7018  0061EC  9A92               	bcf	3986,5,c	;volatile
  7019  0061EE  8A80               	bsf	3968,5,c	;volatile
  7020  0061F0  D084               	goto	i2l201
  7021  0061F2                     i2l3469:
  7022  0061F2  0E00               	movlw	0
  7023  0061F4  6E92               	movwf	3986,c	;volatile
  7024  0061F6  6889               	setf	3977,c	;volatile
  7025  0061F8  D080               	goto	i2l201
  7026  0061FA                     i2l186:
  7027  0061FA  9093               	bcf	3987,0,c	;volatile
  7028  0061FC  8081               	bsf	3969,0,c	;volatile
  7029  0061FE  D07D               	goto	i2l201
  7030  006200                     i2l187:
  7031  006200  9293               	bcf	3987,1,c	;volatile
  7032  006202  8281               	bsf	3969,1,c	;volatile
  7033  006204  D07A               	goto	i2l201
  7034  006206                     i2l188:
  7035  006206  9493               	bcf	3987,2,c	;volatile
  7036  006208  8481               	bsf	3969,2,c	;volatile
  7037  00620A  D077               	goto	i2l201
  7038  00620C                     i2l189:
  7039  00620C  9693               	bcf	3987,3,c	;volatile
  7040  00620E  8681               	bsf	3969,3,c	;volatile
  7041  006210  D074               	goto	i2l201
  7042  006212                     i2l190:
  7043  006212  9893               	bcf	3987,4,c	;volatile
  7044  006214  8881               	bsf	3969,4,c	;volatile
  7045  006216  D071               	goto	i2l201
  7046  006218                     i2l191:
  7047  006218  9A93               	bcf	3987,5,c	;volatile
  7048  00621A  8A81               	bsf	3969,5,c	;volatile
  7049  00621C  D06E               	goto	i2l201
  7050  00621E                     i2l192:
  7051  00621E  9C93               	bcf	3987,6,c	;volatile
  7052  006220  8C81               	bsf	3969,6,c	;volatile
  7053  006222  D06B               	goto	i2l201
  7054  006224                     i2l193:
  7055  006224  9E93               	bcf	3987,7,c	;volatile
  7056  006226  8E81               	bsf	3969,7,c	;volatile
  7057  006228  D068               	goto	i2l201
  7058  00622A                     i2l3473:
  7059  00622A  0E00               	movlw	0
  7060  00622C  6E93               	movwf	3987,c	;volatile
  7061  00622E  688A               	setf	3978,c	;volatile
  7062  006230  D064               	goto	i2l201
  7063  006232                     i2l195:
  7064  006232  9094               	bcf	3988,0,c	;volatile
  7065  006234  8082               	bsf	3970,0,c	;volatile
  7066  006236  D061               	goto	i2l201
  7067  006238                     i2l196:
  7068  006238  9294               	bcf	3988,1,c	;volatile
  7069  00623A  8282               	bsf	3970,1,c	;volatile
  7070  00623C  D05E               	goto	i2l201
  7071  00623E                     i2l197:
  7072  00623E  9494               	bcf	3988,2,c	;volatile
  7073  006240  8482               	bsf	3970,2,c	;volatile
  7074  006242  D05B               	goto	i2l201
  7075  006244                     i2l198:
  7076  006244  9C94               	bcf	3988,6,c	;volatile
  7077  006246  8C82               	bsf	3970,6,c	;volatile
  7078  006248  D058               	goto	i2l201
  7079  00624A                     i2l199:
  7080  00624A  9E94               	bcf	3988,7,c	;volatile
  7081  00624C  8E82               	bsf	3970,7,c	;volatile
  7082  00624E  D055               	goto	i2l201
  7083  006250                     i2l3477:
  7084  006250  0E00               	movlw	0
  7085  006252  6E94               	movwf	3988,c	;volatile
  7086  006254  688B               	setf	3979,c	;volatile
  7087  006256  D051               	goto	i2l201
  7088  006258                     i2l3483:
  7089  006258  C001  F003         	movff	nivel_alto@pino,??_nivel_alto
  7090  00625C  C002  F004         	movff	nivel_alto@pino+1,??_nivel_alto+1
  7091                           
  7092                           ; Switch on 2 bytes has been partitioned into a top level switch of size 1, and 2 sub-sw
      +                          itches
  7093                           ; Switch size 1, requested type "space"
  7094                           ; Number of cases is 2, Range of values is 15 to 124
  7095                           ; switch strategies available:
  7096                           ; Name         Instructions Cycles
  7097                           ; simple_byte            7     4 (average)
  7098                           ;	Chosen strategy is simple_byte
  7099  006260  5004               	movf	??_nivel_alto+1,w,c
  7100  006262  0A0F               	xorlw	15	; case 15
  7101  006264  B4D8               	btfsc	status,2,c
  7102  006266  D004               	goto	i2l3821
  7103  006268  0A73               	xorlw	115	; case 124
  7104  00626A  B4D8               	btfsc	status,2,c
  7105  00626C  D00C               	goto	i2l3823
  7106  00626E  D045               	goto	i2l201
  7107  006270                     i2l3821:
  7108                           
  7109                           ; Switch size 1, requested type "space"
  7110                           ; Number of cases is 3, Range of values is 128 to 130
  7111                           ; switch strategies available:
  7112                           ; Name         Instructions Cycles
  7113                           ; simple_byte           10     6 (average)
  7114                           ;	Chosen strategy is simple_byte
  7115  006270  5003               	movf	??_nivel_alto,w,c
  7116  006272  0A80               	xorlw	128	; case 128
  7117  006274  B4D8               	btfsc	status,2,c
  7118  006276  D7BD               	goto	i2l3469
  7119  006278  0A01               	xorlw	1	; case 129
  7120  00627A  B4D8               	btfsc	status,2,c
  7121  00627C  D7D6               	goto	i2l3473
  7122  00627E  0A03               	xorlw	3	; case 130
  7123  006280  B4D8               	btfsc	status,2,c
  7124  006282  D7E6               	goto	i2l3477
  7125  006284  D03A               	goto	i2l201
  7126  006286                     i2l3823:
  7127                           
  7128                           ; Switch size 1, requested type "space"
  7129                           ; Number of cases is 19, Range of values is 0 to 23
  7130                           ; switch strategies available:
  7131                           ; Name         Instructions Cycles
  7132                           ; simple_byte           58    30 (average)
  7133                           ;	Chosen strategy is simple_byte
  7134  006286  5003               	movf	??_nivel_alto,w,c
  7135  006288  0A00               	xorlw	0	; case 0
  7136  00628A  B4D8               	btfsc	status,2,c
  7137  00628C  D7A0               	goto	i2l178
  7138  00628E  0A01               	xorlw	1	; case 1
  7139  006290  B4D8               	btfsc	status,2,c
  7140  006292  D7A0               	goto	i2l180
  7141  006294  0A03               	xorlw	3	; case 2
  7142  006296  B4D8               	btfsc	status,2,c
  7143  006298  D7A0               	goto	i2l181
  7144  00629A  0A01               	xorlw	1	; case 3
  7145  00629C  B4D8               	btfsc	status,2,c
  7146  00629E  D7A0               	goto	i2l182
  7147  0062A0  0A07               	xorlw	7	; case 4
  7148  0062A2  B4D8               	btfsc	status,2,c
  7149  0062A4  D7A0               	goto	i2l183
  7150  0062A6  0A01               	xorlw	1	; case 5
  7151  0062A8  B4D8               	btfsc	status,2,c
  7152  0062AA  D7A0               	goto	i2l184
  7153  0062AC  0A0D               	xorlw	13	; case 8
  7154  0062AE  B4D8               	btfsc	status,2,c
  7155  0062B0  D7A4               	goto	i2l186
  7156  0062B2  0A01               	xorlw	1	; case 9
  7157  0062B4  B4D8               	btfsc	status,2,c
  7158  0062B6  D7A4               	goto	i2l187
  7159  0062B8  0A03               	xorlw	3	; case 10
  7160  0062BA  B4D8               	btfsc	status,2,c
  7161  0062BC  D7A4               	goto	i2l188
  7162  0062BE  0A01               	xorlw	1	; case 11
  7163  0062C0  B4D8               	btfsc	status,2,c
  7164  0062C2  D7A4               	goto	i2l189
  7165  0062C4  0A07               	xorlw	7	; case 12
  7166  0062C6  B4D8               	btfsc	status,2,c
  7167  0062C8  D7A4               	goto	i2l190
  7168  0062CA  0A01               	xorlw	1	; case 13
  7169  0062CC  B4D8               	btfsc	status,2,c
  7170  0062CE  D7A4               	goto	i2l191
  7171  0062D0  0A03               	xorlw	3	; case 14
  7172  0062D2  B4D8               	btfsc	status,2,c
  7173  0062D4  D7A4               	goto	i2l192
  7174  0062D6  0A01               	xorlw	1	; case 15
  7175  0062D8  B4D8               	btfsc	status,2,c
  7176  0062DA  D7A4               	goto	i2l193
  7177  0062DC  0A1F               	xorlw	31	; case 16
  7178  0062DE  B4D8               	btfsc	status,2,c
  7179  0062E0  D7A8               	goto	i2l195
  7180  0062E2  0A01               	xorlw	1	; case 17
  7181  0062E4  B4D8               	btfsc	status,2,c
  7182  0062E6  D7A8               	goto	i2l196
  7183  0062E8  0A03               	xorlw	3	; case 18
  7184  0062EA  B4D8               	btfsc	status,2,c
  7185  0062EC  D7A8               	goto	i2l197
  7186  0062EE  0A04               	xorlw	4	; case 22
  7187  0062F0  B4D8               	btfsc	status,2,c
  7188  0062F2  D7A8               	goto	i2l198
  7189  0062F4  0A01               	xorlw	1	; case 23
  7190  0062F6  B4D8               	btfsc	status,2,c
  7191  0062F8  D7A8               	goto	i2l199
  7192  0062FA                     i2l201:
  7193  0062FA  0012               	return	
  7194  0062FC                     __end_of_nivel_alto:
  7195                           	opt stack 0
  7196                           pclatu	equ	0xFFB
  7197                           pclath	equ	0xFFA
  7198                           tblptru	equ	0xFF8
  7199                           tblptrh	equ	0xFF7
  7200                           tblptrl	equ	0xFF6
  7201                           tablat	equ	0xFF5
  7202                           prodh	equ	0xFF4
  7203                           prodl	equ	0xFF3
  7204                           intcon	equ	0xFF2
  7205                           intcon2	equ	0xFF1
  7206                           intcon3	equ	0xFF0
  7207                           postinc0	equ	0xFEE
  7208                           fsr0h	equ	0xFEA
  7209                           fsr0l	equ	0xFE9
  7210                           wreg	equ	0xFE8
  7211                           postdec1	equ	0xFE5
  7212                           fsr1h	equ	0xFE2
  7213                           fsr1l	equ	0xFE1
  7214                           indf2	equ	0xFDF
  7215                           fsr2h	equ	0xFDA
  7216                           fsr2l	equ	0xFD9
  7217                           status	equ	0xFD8
  7218                           
  7219 ;; *************** function _ReadUSART *****************
  7220 ;; Defined at:
  7221 ;;		line 15 in file "C:\Program Files (x86)\Microchip\xc8\v1.31\sources\pic18\plib\USART\uread.c"
  7222 ;; Parameters:    Size  Location     Type
  7223 ;;		None
  7224 ;; Auto vars:     Size  Location     Type
  7225 ;;  data            1    0[COMRAM] unsigned char 
  7226 ;; Return value:  Size  Location     Type
  7227 ;;                  1    wreg      unsigned char 
  7228 ;; Registers used:
  7229 ;;		wreg, status,2, status,0
  7230 ;; Tracked objects:
  7231 ;;		On entry : 0/0
  7232 ;;		On exit  : 0/0
  7233 ;;		Unchanged: 0/0
  7234 ;; Data sizes:     COMRAM   BANK0   BANK1   BANK2   BANK3   BANK4   BANK5   BANK6   BANK7
  7235 ;;      Params:         0       0       0       0       0       0       0       0       0
  7236 ;;      Locals:         1       0       0       0       0       0       0       0       0
  7237 ;;      Temps:          0       0       0       0       0       0       0       0       0
  7238 ;;      Totals:         1       0       0       0       0       0       0       0       0
  7239 ;;Total ram usage:        1 bytes
  7240 ;; Hardware stack levels used:    1
  7241 ;; This function calls:
  7242 ;;		Nothing
  7243 ;; This function is called by:
  7244 ;;		_interrupcao
  7245 ;; This function uses a non-reentrant model
  7246 ;;
  7247                           
  7248                           	psect	text24
  7249  00588E                     __ptext24:
  7250                           	opt stack 0
  7251  00588E                     _ReadUSART:
  7252                           	opt stack 26
  7253                           
  7254                           ;incstack = 0
  7255  00588E  0EF2               	movlw	242
  7256  005890  1644               	andwf	_USART_Status,f,c
  7257  005892  ACAB               	btfss	4011,6,c	;volatile
  7258  005894  D003               	goto	i2l580
  7259  005896  9044               	bcf	_USART_Status,0,c
  7260  005898  B0AB               	btfsc	4011,0,c	;volatile
  7261  00589A  8044               	bsf	_USART_Status,0,c
  7262  00589C                     i2l580:
  7263  00589C  B4AB               	btfsc	4011,2,c	;volatile
  7264  00589E  8444               	bsf	_USART_Status,2,c
  7265  0058A0  B2AB               	btfsc	4011,1,c	;volatile
  7266  0058A2  8644               	bsf	_USART_Status,3,c
  7267  0058A4  CFAE F001          	movff	4014,ReadUSART@data	;volatile
  7268  0058A8  5001               	movf	ReadUSART@data,w,c
  7269  0058AA  0012               	return	
  7270  0058AC                     __end_of_ReadUSART:
  7271                           	opt stack 0
  7272                           pclatu	equ	0xFFB
  7273                           pclath	equ	0xFFA
  7274                           tblptru	equ	0xFF8
  7275                           tblptrh	equ	0xFF7
  7276                           tblptrl	equ	0xFF6
  7277                           tablat	equ	0xFF5
  7278                           prodh	equ	0xFF4
  7279                           prodl	equ	0xFF3
  7280                           intcon	equ	0xFF2
  7281                           intcon2	equ	0xFF1
  7282                           intcon3	equ	0xFF0
  7283                           postinc0	equ	0xFEE
  7284                           fsr0h	equ	0xFEA
  7285                           fsr0l	equ	0xFE9
  7286                           wreg	equ	0xFE8
  7287                           postdec1	equ	0xFE5
  7288                           fsr1h	equ	0xFE2
  7289                           fsr1l	equ	0xFE1
  7290                           indf2	equ	0xFDF
  7291                           fsr2h	equ	0xFDA
  7292                           fsr2l	equ	0xFD9
  7293                           status	equ	0xFD8
  7294                           pclatu	equ	0xFFB
  7295                           pclath	equ	0xFFA
  7296                           tblptru	equ	0xFF8
  7297                           tblptrh	equ	0xFF7
  7298                           tblptrl	equ	0xFF6
  7299                           tablat	equ	0xFF5
  7300                           prodh	equ	0xFF4
  7301                           prodl	equ	0xFF3
  7302                           intcon	equ	0xFF2
  7303                           intcon2	equ	0xFF1
  7304                           intcon3	equ	0xFF0
  7305                           postinc0	equ	0xFEE
  7306                           fsr0h	equ	0xFEA
  7307                           fsr0l	equ	0xFE9
  7308                           wreg	equ	0xFE8
  7309                           postdec1	equ	0xFE5
  7310                           fsr1h	equ	0xFE2
  7311                           fsr1l	equ	0xFE1
  7312                           indf2	equ	0xFDF
  7313                           fsr2h	equ	0xFDA
  7314                           fsr2l	equ	0xFD9
  7315                           status	equ	0xFD8
  7316                           
  7317                           	psect	rparam
  7318  0000                     pclatu	equ	0xFFB
  7319                           pclath	equ	0xFFA
  7320                           tblptru	equ	0xFF8
  7321                           tblptrh	equ	0xFF7
  7322                           tblptrl	equ	0xFF6
  7323                           tablat	equ	0xFF5
  7324                           prodh	equ	0xFF4
  7325                           prodl	equ	0xFF3
  7326                           intcon	equ	0xFF2
  7327                           intcon2	equ	0xFF1
  7328                           intcon3	equ	0xFF0
  7329                           postinc0	equ	0xFEE
  7330                           fsr0h	equ	0xFEA
  7331                           fsr0l	equ	0xFE9
  7332                           wreg	equ	0xFE8
  7333                           postdec1	equ	0xFE5
  7334                           fsr1h	equ	0xFE2
  7335                           fsr1l	equ	0xFE1
  7336                           indf2	equ	0xFDF
  7337                           fsr2h	equ	0xFDA
  7338                           fsr2l	equ	0xFD9
  7339                           status	equ	0xFD8


Data Sizes:
    Strings     0
    Constant    419
    Data        4
    BSS         83
    Persistent  0
    Stack       0

Auto Spaces:
    Space          Size  Autos    Used
    COMRAM           95     53      76
    BANK0           160      0      64
    BANK1           256      0       0
    BANK2           256      0       0
    BANK3           256      0       0
    BANK4           256      0       0
    BANK5           256      0       0
    BANK6           256      0       0
    BANK7           256      0       0

Pointer List with Targets:

    sendr@st	PTR unsigned char  size(2) Largest target is 195
		 -> pg2(CODE[195]), pg1(CODE[17]), pg(CODE[180]), 


Critical Paths under _main in COMRAM

    _main->_taxa_serial
    _taxa_serial->___lldiv
    _sendr->_sputc
    _sendnum->___lwmod
    ___lwmod->___lwdiv
    _le_AD10bits->_tempo_ms
    _iniws->_tempo_ms
    _tempo_ms->___wmul
    _clock_int_48MHz->___lwdiv
    ___lwdiv->___awmod

Critical Paths under _interrupcao in COMRAM

    _interrupcao->_nivel_alto
    _interrupcao->_nivel_baixo
    _interrupcao->i2_inverte_saida

Critical Paths under _main in BANK0

    None.

Critical Paths under _interrupcao in BANK0

    None.

Critical Paths under _main in BANK1

    None.

Critical Paths under _interrupcao in BANK1

    None.

Critical Paths under _main in BANK2

    None.

Critical Paths under _interrupcao in BANK2

    None.

Critical Paths under _main in BANK3

    None.

Critical Paths under _interrupcao in BANK3

    None.

Critical Paths under _main in BANK4

    None.

Critical Paths under _interrupcao in BANK4

    None.

Critical Paths under _main in BANK5

    None.

Critical Paths under _interrupcao in BANK5

    None.

Critical Paths under _main in BANK6

    None.

Critical Paths under _interrupcao in BANK6

    None.

Critical Paths under _main in BANK7

    None.

Critical Paths under _interrupcao in BANK7

    None.

Call Graph Tables:

 ---------------------------------------------------------------------------------
 (Depth) Function   	        Calls       Base Space   Used Autos Params    Refs
 ---------------------------------------------------------------------------------
 (0) _main                                                 4     4      0   14727
                                             49 COMRAM     4     4      0
                    _clock_int_48MHz
                  _habilita_canal_AD
               _habilita_interrupcao
                              _iniws
                        _le_AD10bits
                            _sendnum
                              _sendr
                              _sputc
                        _taxa_serial
                           _tempo_ms
 ---------------------------------------------------------------------------------
 (1) _taxa_serial                                         16    12      4     309
                                             33 COMRAM    16    12      4
                            ___lldiv
 ---------------------------------------------------------------------------------
 (2) ___lldiv                                             14     6      8     211
                                             19 COMRAM    14     6      8
 ---------------------------------------------------------------------------------
 (1) _sendr                                                4     2      2     204
                                             22 COMRAM     4     2      2
                              _sputc
 ---------------------------------------------------------------------------------
 (1) _sendnum                                              2     0      2    1473
                                             40 COMRAM     2     0      2
                            ___lwdiv
                            ___lwmod
                             _swputc
 ---------------------------------------------------------------------------------
 (2) ___lwmod                                              6     2      4     635
                                             34 COMRAM     6     2      4
                            ___lwdiv (ARG)
 ---------------------------------------------------------------------------------
 (1) _le_AD10bits                                          3     1      2    3027
                                             29 COMRAM     3     1      2
                           _tempo_ms
 ---------------------------------------------------------------------------------
 (1) _iniws                                                2     2      0    5653
                                             29 COMRAM     2     2      0
                      _inverte_saida
                              _sputc
                             _swputc
                           _tempo_ms
 ---------------------------------------------------------------------------------
 (1) _tempo_ms                                             4     2      2    3012
                                             25 COMRAM     4     2      2
                        _Delay1KTCYx
                             ___wmul
 ---------------------------------------------------------------------------------
 (2) ___wmul                                               6     2      4     635
                                             19 COMRAM     6     2      4
 ---------------------------------------------------------------------------------
 (2) _Delay1KTCYx                                          1     1      0      15
                                             19 COMRAM     1     1      0
 ---------------------------------------------------------------------------------
 (2) _swputc                                               1     1      0      15
                                             19 COMRAM     1     1      0
 ---------------------------------------------------------------------------------
 (1) _sputc                                                3     3      0      15
                                             19 COMRAM     3     3      0
 ---------------------------------------------------------------------------------
 (2) _inverte_saida                                        4     2      2    2116
                                             19 COMRAM     4     2      2
 ---------------------------------------------------------------------------------
 (1) _habilita_interrupcao                                 4     2      2      68
                                             19 COMRAM     4     2      2
 ---------------------------------------------------------------------------------
 (1) _habilita_canal_AD                                    1     1      0      15
                                             19 COMRAM     1     1      0
 ---------------------------------------------------------------------------------
 (1) _clock_int_48MHz                                      0     0      0     951
                            ___awmod
                            ___lwdiv
                          _le_eeprom
 ---------------------------------------------------------------------------------
 (2) _le_eeprom                                            1     1      0      15
                                             19 COMRAM     1     1      0
 ---------------------------------------------------------------------------------
 (2) ___lwdiv                                              8     4      4     635
                                             26 COMRAM     8     4      4
                            ___awmod (ARG)
 ---------------------------------------------------------------------------------
 (2) ___awmod                                              7     3      4     301
                                             19 COMRAM     7     3      4
 ---------------------------------------------------------------------------------
 Estimated maximum stack depth 2
 ---------------------------------------------------------------------------------
 (Depth) Function   	        Calls       Base Space   Used Autos Params    Refs
 ---------------------------------------------------------------------------------
 (4) _interrupcao                                         15    15      0     435
                                              4 COMRAM    15    15      0
                          _ReadUSART
                         _nivel_alto
                        _nivel_baixo
                    i2_inverte_saida
 ---------------------------------------------------------------------------------
 (5) i2_inverte_saida                                      4     2      2      48
                                              0 COMRAM     4     2      2
 ---------------------------------------------------------------------------------
 (5) _nivel_baixo                                          4     2      2     150
                                              0 COMRAM     4     2      2
 ---------------------------------------------------------------------------------
 (5) _nivel_alto                                           4     2      2     214
                                              0 COMRAM     4     2      2
 ---------------------------------------------------------------------------------
 (5) _ReadUSART                                            1     1      0      23
                                              0 COMRAM     1     1      0
 ---------------------------------------------------------------------------------
 Estimated maximum stack depth 5
 ---------------------------------------------------------------------------------

 Call Graph Graphs:

 _main (ROOT)
   _clock_int_48MHz
     ___awmod
     ___lwdiv
       ___awmod (ARG)
     _le_eeprom
   _habilita_canal_AD
   _habilita_interrupcao
   _iniws
     _inverte_saida
     _sputc
     _swputc
     _tempo_ms
       _Delay1KTCYx
       ___wmul
   _le_AD10bits
     _tempo_ms
       _Delay1KTCYx
       ___wmul
   _sendnum
     ___lwdiv
       ___awmod (ARG)
     ___lwmod
       ___lwdiv (ARG)
         ___awmod (ARG)
     _swputc
   _sendr
     _sputc
   _sputc
   _taxa_serial
     ___lldiv
   _tempo_ms
     _Delay1KTCYx
     ___wmul

 _interrupcao (ROOT)
   _ReadUSART
   _nivel_alto
   _nivel_baixo
   i2_inverte_saida

 Address spaces:
Name               Size   Autos  Total    Cost      Usage
BIGRAM             7FF      0       0      21        0.0%
EEDATA             100      0       0       0        0.0%
BITBANK7           100      0       0      18        0.0%
BANK7              100      0       0      19        0.0%
BITBANK6           100      0       0      16        0.0%
BANK6              100      0       0      17        0.0%
BITBANK5           100      0       0      14        0.0%
BANK5              100      0       0      15        0.0%
BITBANK4           100      0       0      12        0.0%
BANK4              100      0       0      13        0.0%
BITBANK3           100      0       0      10        0.0%
BANK3              100      0       0      11        0.0%
BITBANK2           100      0       0       8        0.0%
BANK2              100      0       0       9        0.0%
BITBANK1           100      0       0       6        0.0%
BANK1              100      0       0       7        0.0%
BITBANK0            A0      0       0       4        0.0%
BANK0               A0      0      40       5       40.0%
BITCOMRAM           5F      0       0       0        0.0%
COMRAM              5F     35      4C       1       80.0%
BITSFR               0      0       0      40        0.0%
SFR                  0      0       0      40        0.0%
STACK                0      0       0       2        0.0%
NULL                 0      0       0       0        0.0%
ABS                  0      0      8C      20        0.0%
DATA                 0      0      8C       3        0.0%
CODE                 0      0       0       0        0.0%


Microchip Technology PIC18 Macro Assembler V1.31 build 56723 
Symbol Table                                                                                   Sat Sep 13 22:03:17 2014

                            _R 0049                              _i 003E                              _k 0045  
                            _m 0046                              _n 0047                             u50 58BE  
                           u64 58CC                             u65 58C8                             u58 58C0  
                           _ip 7E5B                             _pg 7F39            ___wmul@multiplicand 0016  
            ??_clock_int_48MHz 0023                            l140 5D16                            l142 5D1C  
                          l150 5DB2                            l143 5D22                            l144 5D28  
                          l240 5FDC                            l232 5FB2                            l145 5D2E  
                          l241 5FE2                            l146 5D34                            l250 6018  
                          l242 5FE8                            l234 5FB8                            l147 5D3A  
                          l251 601E                            l243 5FEE                            l235 5FBE  
                          l148 5D40                            l252 6024                            l244 5FF4  
                          l236 5FC4                            l149 5D44                            l245 5FFA  
                          l237 5FCA                            l253 60B4                            l246 6000  
                          l238 5FD0                            l430 61AC                            l247 6006  
                          l239 5FD6                            l248 600C                            l328 5C66  
                          l249 6012          __end_of_inverte_saida 60B6                            l286 59A8  
                          l391 584A                            l376 59EC                            l397 58B0  
                          _AT1 0038                            _AT2 003A                            l795 586C  
                          _PR2 000FCB                            _REG 004B                            u965 5E46  
                          _pg1 7FED                            _pg2 7E76                   ___awmod@sign 001A  
      __end_ofi2_inverte_saida 5FB0                            prod 000FF3                            wreg 000FE8  
                         l1107 5990                           l1028 5BD6                           l2013 6884  
                         l2111 6AE0                           l2121 6B6C                           l2115 6B24  
                         l2107 6AAC                           l2215 6DBA                           l2127 6B8C  
                         l2063 69B4                           l1097 5A82                           l3121 7E46  
                         l3009 7B6A                           l2171 6CB2                           l2413 7090  
                         l2181 6D3E                           l1701 596E                           l1631 5CCE  
                         l1623 5CA0                           l2511 72C8                           l2239 6E10  
                         l2175 6CF6                           l2167 6C7E                           l1703 5972  
                         l1633 5CD6                           l2409 7078                           l2185 6D50  
                         l1801 5C12                           l1635 5CDA                           l1643 5CF8  
                         l1627 5CBC                           l1715 5D4A                           l2371 6FDC  
                         l1707 5986                           l3411 5E22                           l3069 7CE8  
                         l1805 5C18                           l1661 5B98                           l1647 5D06  
                         l1639 5CEE                           l1591 59C0                           l2631 75A8  
                         l2439 711C                           l1903 6680                           l1807 5C56  
                         l1681 5A58                           l1577 602A                           l2449 7154  
                         l2385 7020                           l1833 5A96                           l1657 5B88  
                         l3417 5E62                           l1691 5A78                           l1683 5A5C  
                         l1587 59B6                           l1851 616E                           l1843 60F4  
                         l1659 5B94                           l1933 66EA                           l1837 5ABC  
                         l1669 5BC8                           l1679 5A50                           l1791 5BFE  
                         l1783 5BEE                           l1847 6130                           l2745 77CC  
                         l2569 7434                           l1793 5C02                           l1785 5BF2  
                         l3811 5D94                           l2843 7916                           l1891 664C  
                         l1795 5C06                           l1787 5BF6                           l1699 5966  
                         l3813 5DA4                           l1957 6740                           l1797 5C0A  
                         l1789 5BFA                           l3807 5D6E                           l1799 5C0E  
                         l3399 5DE2                           l3809 5D8A                           l2689 7714  
                         l2939 7A54                           l2795 7870                           l2975 7ACE  
                         l2897 79C6                           l2995 7B1A                           u1117 586E  
                         _LATA 000F89                           _LATB 000F8A                           _LATC 000F8B  
         __size_of_le_AD10bits 008C                           _main 5DB4                           _rede 7E69  
                         _smid 0048                           fsr0h 000FEA                           fsr1h 000FE2  
                         fsr0l 000FE9                           fsr2h 000FDA                           fsr1l 000FE1  
                         indf2 000FDF                           fsr2l 000FD9                           pclat 000FFA  
                         prodh 000FF4                           prodl 000FF3                           start 1018  
            inverte_saida@pino 0014                    _Delay1KTCYx 5868                          ?_main 0001  
                        _ADRES 000FC3                          _EEADR 000FA9                __end_of___awmod 5D10  
              __end_of___lldiv 5BE8                          _T0CON 000FD5                          _T2CON 000FCA  
              __end_of___lwdiv 5A8C                          i2l201 62FA                __end_of___lwmod 599A  
                        i2l210 6316                          i2l211 631C                          i2l220 6356  
                        i2l213 632C                          i2l205 62FE                          i2l222 6366  
                        i2l214 6332                          i2l223 636C                          i2l215 6338  
                        i2l207 6304                          i2l224 6372                          i2l216 633E  
                        i2l208 630A                          i2l240 5ED6                          i2l232 5EAC  
                        i2l225 6378                          i2l217 6344                          i2l209 6310  
                        i2l241 5EDC                          i2l226 637E                          i2l218 634A  
                        i2l250 5F12                          i2l242 5EE2                          i2l234 5EB2  
                        i2l219 6350                          i2l251 5F18                          i2l243 5EE8  
                        i2l235 5EB8                          i2l180 61D4                          i2l228 6430  
                        i2l252 5F1E                          i2l244 5EEE                          i2l236 5EBE  
                        i2l181 61DA                          i2l245 5EF4                          i2l237 5EC4  
                        i2l253 5FAE                          i2l190 6212                          i2l182 61E0  
                        i2l246 5EFA                          i2l238 5ECA                          i2l191 6218  
                        i2l183 61E6                          i2l247 5F00                          i2l239 5ED0  
                        i2l192 621E                          i2l184 61EC                          i2l248 5F06  
                        i2l193 6224                          i2l249 5F0C                          i2l186 61FA  
                        i2l178 61CE                          i2l195 6232                          i2l187 6200  
                        i2l196 6238                          i2l188 6206                          i2l197 623E  
                        i2l189 620C                          i2l198 6244                          i2l199 624A  
                        i2l580 589C                          i2l499 65BC                          _RCREG 000FAE  
                        _RCSTA 000FAB                          _REGad 004C                          _TMR0H 000FD7  
                        _TMR1H 000FCF                          _TMR0L 000FD6                          _TMR3H 000FB3  
                        _TMR1L 000FCE                          _TMR3L 000FB2                          _SPBRG 000FAF  
                        _TRISA 000F92                          _TRISB 000F93                          _TRISC 000F94  
                        _TXREG 000FAD                          _TXSTA 000FAC                          _iniws 65F6  
                        _pisca 0040                          _senha 7E70                          _sendr 5A8C  
                        _start 0042                          _sputc 58AC                __end_of_sendnum 61CC  
                        tablat 000FF5                          status 000FD8  __size_of_habilita_interrupcao 00A4  
              __initialization 5912                   ?_interrupcao 0001                   __end_of_main 5EAA  
                 __end_of_rede 7E70                         ??_main 0032                  __activetblptr 000002  
             ?i2_inverte_saida 0001                   ?_nivel_baixo 0001                         _ADCON0 000FC2  
                       _ADCON1 000FC1                         _ADCON2 000FC0                         ?_iniws 0001  
                       _ADRESH 000FC4                         _EEDATA 000FA8                         _CCPR1L 000FBE  
                       _CCPR2L 000FBB                         _EECON1 000FA6                         _EECON2 000FA7  
                       ?_sendr 0017                         ?_sputc 0001                         i2l3503 638E  
                       i2l3533 5F24                         i2l3473 622A                         i2l3561 64B0  
                       i2l3483 6258                         i2l3555 6490                         i2l3563 64EA  
                       i2l3821 6270                         i2l3477 6250                         i2l3469 61F2  
                       i2l3573 650C                         i2l3557 649A                         i2l3549 6486  
                       i2l3823 6286                         i2l3495 6322                         i2l3591 657C  
                       i2l3575 651A                         i2l3583 653E                         i2l3817 63A6  
                       i2l3497 635C                         i2l3577 6528                         i2l3569 64FE  
                       i2l3585 6558                         i2l3819 63BC                         i2l3499 6384  
                       i2l3599 65AC             __size_of_ReadUSART 001E                         _SPBRGH 000FB0  
                 ?_taxa_serial 0022                         ___wmul 58D8                      ??___awmod 0018  
                    ??___lldiv 001C                      ??___lwdiv 001F                      ??___lwmod 0027  
                       _flagsw 003C                         clear_0 5918                         clear_1 5924  
              ___awmod@divisor 0016                ___awmod@counter 0019                         _swputc 5846  
                       iniws@i 001F                   __pdataCOMRAM 0049               __end_of_tempo_ms 59E2  
                 __mediumconst 7E5A                         tblptrh 000FF7                         tblptrl 000FF6  
                    ??_sendnum 002B                         tblptru 000FF8                         sputc@c 0016  
                   __accesstop 0060        __end_of__initialization 594A                _clock_int_48MHz 59E2  
               __pcstackCOMRAM 0001                  __end_of_iniws 7E5A                  __end_of_senha 7E76  
                __end_of_sendr 5AE4                  __end_of_sputc 58D8              __end_of_ReadUSART 58AC  
                   __end_of_ip 7E69                     __end_of_pg 7FED       habilita_interrupcao@tipo 0014  
            _habilita_canal_AD 5856             ?_habilita_canal_AD 0001                  ReadUSART@data 0001  
           __size_of_le_eeprom 0014                        ??_iniws 001E                        ??_sendr 0019  
                      ??_sputc 0014                     __pbssBANK0 0060            ??_habilita_canal_AD 0014  
                      ?___wmul 0014           __size_of_interrupcao 55EE                        _CCP1CON 000FBD  
                      _CCP2CON 000FBA                   ?_Delay1KTCYx 0001                        _BAUDCON 000FB8  
    __end_of_habilita_canal_AD 5868                        ?_swputc 0001                        _ADvalue 0036  
         __size_of_nivel_baixo 0136                  ??_le_AD10bits 0020        __end_of_clock_int_48MHz 5A36  
       __size_of_inverte_saida 0106                        __Hparam 0000                        __Lparam 0000  
                    ?_tempo_ms 001A              __end_of_le_eeprom 588E           __size_of_taxa_serial 007E  
                      ___awmod 5C74                        ___lldiv 5B62                __size_of___wmul 003A  
                      ___lwdiv 5A36                        ___lwmod 5954                        __pcinit 5912  
                      __ramtop 0800                        __ptext0 5DB4                        __ptext1 5AE4  
                      __ptext2 5B62                        __ptext3 5A8C                        __ptext4 60B6  
                      __ptext5 5954                        __ptext6 5BE8                        __ptext7 65F6  
                      __ptext8 599A                        __ptext9 58D8                        _comando 0060  
                    _T0CONbits 000FD5                      _T1CONbits 000FCD                __size_of_swputc 0010  
                    _T2CONbits 000FCA   __end_of_habilita_interrupcao 5DB4                      _T3CONbits 000FB1  
             ___awmod@dividend 0014                        _sendnum 60B6                 __pintcode_body 6432  
         end_of_initialization 594A                     _nivel_alto 61CC                  __Lmediumconst 7E5A  
                      int_func 6432            __end_of_le_AD10bits 5C74                ___lldiv@divisor 0018  
                      sendr@st 0017                ___lldiv@counter 0021                     ??_tempo_ms 001C  
                    _RCSTAbits 000FAB                        postdec1 000FE5                        postinc0 000FEE  
   __size_of_habilita_canal_AD 0012                      _PORTAbits 000F80                      _PORTBbits 000F81  
                    _PORTCbits 000F82                      _PORTDbits 000F83                        swputc@c 0014  
                _inverte_saida 5FB0                      _TRISAbits 000F92                      _TRISBbits 000F93  
                    _TRISCbits 000F94                      _TRISDbits 000F95               ?_clock_int_48MHz 0001  
     __size_ofi2_inverte_saida 0106                      _TXSTAbits 000FAC                le_AD10bits@conv 0020  
               __end_of___wmul 5912                    _BAUDCONbits 000FB8                  __pidataCOMRAM 5842  
               ?_inverte_saida 0014           __size_of_Delay1KTCYx 0012                 __end_of_swputc 5856  
          start_initialization 5912                      _ReadUSART 588E                    __end_of_pg1 7FFE  
                  __end_of_pg2 7F39                    _le_AD10bits 5BE8                    ?_nivel_alto 0001  
         _habilita_interrupcao 5D10                       ??___wmul 0018                       ??_swputc 0014  
                  __pbssCOMRAM 0036                     ?_ReadUSART 0001                Delay1KTCYx@unit 0014  
        ?_habilita_interrupcao 0014               ___lwdiv@dividend 001B                  ??_interrupcao 0005  
            ??i2_inverte_saida 0003                  sendnum@sannum 0029                      __pintcode 1008  
                __pmediumconst 7E5A                       ?___awmod 0014                       ?___lldiv 0014  
                     ?___lwdiv 001B                       ?___lwmod 0023              __size_of_tempo_ms 0048  
              ??_inverte_saida 0016                      _le_eeprom 587A            __size_of_nivel_alto 0130  
                ??_nivel_baixo 0003                       ?_sendnum 0029               ___lwdiv@quotient 0020  
               __size_of_iniws 1864                 __size_of_sendr 0058                 __size_of_sputc 002C  
               ___wmul@product 0018                       _IPR1bits 000F9F                       _PIE1bits 000F9D  
                     _PIE2bits 000FA0                  ??_taxa_serial 0026                       _PIR1bits 000F9E  
                     _RCONbits 000FD0                     ?_le_eeprom 0001            __end_of_interrupcao 65F6  
                   _ADCON0bits 000FC2                     _ADCON2bits 000FC0              ___wmul@multiplier 0014  
                  ??_ReadUSART 0001                    _INTCON2bits 000FF1                    _INTCON3bits 000FF0  
                    copy_data0 593E            i2inverte_saida@pino 0001            __end_of_nivel_baixo 6432  
       ??_habilita_interrupcao 0016                     _EECON1bits 000FA6                       __Hrparam 0000  
              nivel_baixo@pino 0001                       __Lrparam 0000         habilita_canal_AD@canal 0014  
             __size_of___awmod 009C            __end_of_taxa_serial 5B62               __size_of___lldiv 0086  
             __size_of___lwdiv 0056               __size_of___lwmod 0046                ___lwdiv@divisor 001D  
              ___lwdiv@counter 0022                       __ptext10 5868                       __ptext11 5846  
                     __ptext12 58AC                       __ptext21 5EAA                       __ptext13 5FB0  
                     __ptext22 62FC                       __ptext14 5D10                       __ptext23 61CC  
                     __ptext15 5856                       __ptext24 588E                       __ptext16 59E2  
                     __ptext17 587A                       __ptext18 5A36                       __ptext19 5C74  
             __size_of_sendnum 0116                   ?_le_AD10bits 001E                   ??_nivel_alto 0003  
              taxa_serial@taxa 0022                  __size_of_main 00F6       __size_of_clock_int_48MHz 0054  
                  _interrupcao 1008                      tempo_ms@i 001A                       _tempo_ms 599A  
                    tempo_ms@k 001C              le_eeprom@endereco 0014                  ??_Delay1KTCYx 0014  
                  ??_le_eeprom 0014             __end_of_nivel_alto 62FC                     _INTCONbits 000FF2  
                  _nivel_baixo 62FC         taxa_serial@baud_sanusb 002E                i2_inverte_saida 5EAA  
                     intlevel2 0000               ___lwmod@dividend 0023                 nivel_alto@pino 0001  
             ___lldiv@dividend 0014                    _taxa_serial 5AE4               ___lldiv@quotient 001D  
              ___lwmod@divisor 0025            __end_of_Delay1KTCYx 587A                ___lwmod@counter 0028  
                   _WDTCONbits 000FD1                   _USART_Status 0044  
